{
  "main_library": {
    "compatibility_versions": [
      {
        "version": "3"
      }
    ],
    "current_versions": [
      {
        "version": "3.4.3"
      }
    ],
    "exported_symbols": [
      {
        "data": {
          "global": [
            "__ZTSN32qvac_lib_inference_addon_whisper24WhisperDefaultBatchModelE",
            "__ZTIN4ggml3cpu13tensor_traitsE",
            "_ggml_arm_arch_features",
            "__ZTVN32qvac_lib_inference_addon_whisper20WhisperVADBatchModelE",
            "__ZTIN32qvac_lib_inference_addon_whisper24WhisperDefaultBatchModelE",
            "__ZTSN4ggml3cpu17extra_buffer_typeE",
            "__ZTSN32qvac_lib_inference_addon_whisper20WhisperVADBatchModelE",
            "_ggml_metallib_start",
            "__ZTVN4ggml3cpu13tensor_traitsE",
            "_ggml_metallib_end",
            "_ggml_table_gelu_f16",
            "__ZTSN32qvac_lib_inference_addon_whisper22WhisperVADCaptionModelE",
            "__ZTIN32qvac_lib_inference_addon_whisper26WhisperDefaultCaptionModelE",
            "_ggml_table_f32_f16",
            "__ZTVN32qvac_lib_inference_addon_whisper24WhisperDefaultBatchModelE",
            "__ZTIN4ggml3cpu17extra_buffer_typeE",
            "__ZTSN32qvac_lib_inference_addon_whisper15WhisperCppModelE",
            "__ZTVN32qvac_lib_inference_addon_whisper15WhisperCppModelE",
            "__ZTVN32qvac_lib_inference_addon_whisper22WhisperVADCaptionModelE",
            "__ZTIN32qvac_lib_inference_addon_whisper15WhisperCppModelE",
            "_ggml_table_gelu_quick_f16",
            "_ggml_critical_section_mutex",
            "__ZTVN32qvac_lib_inference_addon_whisper26WhisperDefaultCaptionModelE",
            "__ZTIN32qvac_lib_inference_addon_whisper20WhisperVADBatchModelE",
            "__ZTSN32qvac_lib_inference_addon_whisper26WhisperDefaultCaptionModelE",
            "__ZTSN4ggml3cpu13tensor_traitsE",
            "__ZTIN32qvac_lib_inference_addon_whisper22WhisperVADCaptionModelE",
            "__ZTVN4ggml3cpu17extra_buffer_typeE"
          ],
          "objc_class": [
            "ggml_metal_heap_ptr"
          ],
          "weak": [
            "__ZGVN28qvac_lib_inference_addon_cpp11JsInterfaceINS_5AddonIN32qvac_lib_inference_addon_whisper22WhisperCppModelWrapperEEEE10instances_E",
            "__ZN28qvac_lib_inference_addon_cpp11JsInterfaceINS_5AddonIN32qvac_lib_inference_addon_whisper22WhisperCppModelWrapperEEEE10instances_E",
            "__ZGVN28qvac_lib_inference_addon_cpp6logger8JsLogger12queue_mutex_E",
            "__ZGVN28qvac_lib_inference_addon_cpp11JsInterfaceINS_5AddonIN32qvac_lib_inference_addon_whisper22WhisperCppModelWrapperEEEE13instancesMtx_E",
            "__ZGVN28qvac_lib_inference_addon_cpp6logger8JsLogger6state_E",
            "__ZN28qvac_lib_inference_addon_cpp6logger8JsLogger16async_initiated_E",
            "__ZN28qvac_lib_inference_addon_cpp6logger8JsLogger6state_E",
            "__ZNSt3__119piecewise_constructE",
            "__ZN28qvac_lib_inference_addon_cpp6logger8JsLogger12queue_mutex_E",
            "__ZN28qvac_lib_inference_addon_cpp6logger8JsLogger13logger_async_E",
            "__ZGVN28qvac_lib_inference_addon_cpp6logger8JsLogger10log_queue_E",
            "__ZN28qvac_lib_inference_addon_cpp11JsInterfaceINS_5AddonIN32qvac_lib_inference_addon_whisper22WhisperCppModelWrapperEEEE13instancesMtx_E",
            "__ZN28qvac_lib_inference_addon_cpp6logger8JsLogger10log_queue_E"
          ]
        },
        "text": {
          "global": [
            "_ggml_dup",
            "_ggml_backend_name",
            "__ZNK32qvac_lib_inference_addon_whisper13WhisperConfig12getModelPathEv",
            "_ggml_threadpool_resume",
            "_ggml_custom_inplace",
            "__ZNK32qvac_lib_inference_addon_whisper13WhisperConfig21getChunkLengthSecondsEv",
            "_dequantize_row_q2_K",
            "__ZN32qvac_lib_inference_addon_whisper26WhisperDefaultCaptionModel11postProcessERKNSt3__16vectorINS_10TranscriptENS1_9allocatorIS3_EEEE",
            "__ZN32qvac_lib_inference_addon_whisper22WhisperCppModelWrapper5resetEv",
            "_ggml_get_rows_back",
            "_ggml_validate_row_data",
            "_ggml_compute_forward_concat",
            "_whisper_free",
            "_quantize_iq3_xxs",
            "_ggml_nelements",
            "_ggml_arange",
            "_whisper_model_n_audio_state",
            "_whisper_lang_auto_detect",
            "__ZN32qvac_lib_inference_addon_whisper15WhisperCppModel12runtimeStatsEv",
            "__ZN32qvac_lib_inference_addon_whisper22WhisperCppModelWrapper13unloadWeightsEv",
            "_ggml_graph_size",
            "_ggml_rope",
            "_ggml_get_f32_1d",
            "_ggml_get_type_traits",
            "_ggml_backend_dev_count",
            "_ggml_backend_is_metal",
            "_ggml_compute_forward_unary",
            "__Z19ggml_quantize_mat_tILx8EL9ggml_type15EEvPKfPvxx",
            "_whisper_print_system_info",
            "_ggml_backend_sched_get_n_backends",
            "_ggml_silu_inplace",
            "_quantize_row_q2_K",
            "_ggml_backend_sched_get_backend",
            "_ggml_map_custom1",
            "_quantize_tq1_0",
            "_whisper_ctx_init_openvino_encoder_with_state",
            "__ZNK32qvac_lib_inference_addon_whisper22WhisperCppModelWrapper8isLoadedEv",
            "_ggml_backend_cpu_init",
            "_ggml_backend_event_synchronize",
            "_ggml_backend_dev_buffer_from_host_ptr",
            "_ggml_print_backtrace",
            "_ggml_sqr_inplace",
            "_ggml_quantize_chunk",
            "_whisper_lang_str",
            "_ggml_vec_dot_iq4_xs_q8_K",
            "_ggml_backend_init_by_name",
            "_whisper_pcm_to_mel",
            "_whisper_token_sot",
            "_ggml_backend_graph_compute_async",
            "_ggml_compute_forward_flash_attn_back",
            "_ggml_norm_inplace",
            "_ggml_vec_dot_q6_K_q8_K",
            "_ggml_cross_entropy_loss_back",
            "_ggml_im2col",
            "_ggml_compute_forward_rope",
            "_whisper_bench_ggml_mul_mat_str",
            "_ggml_rope_inplace",
            "__Z14cb_log_disable14ggml_log_levelPKcPv",
            "_ggml_backend_graph_compute",
            "_whisper_set_mel",
            "_ggml_sum",
            "_ggml_rope_ext_inplace",
            "_ggml_compute_forward_map_custom2",
            "_whisper_token_transcribe",
            "_whisper_vad_default_context_params",
            "_ggml_rope_custom",
            "_ggml_vec_silu_f32",
            "_ggml_backend_free",
            "_quantize_iq2_s",
            "_whisper_bench_memcpy",
            "_ggml_backend_get_default_buffer_type",
            "_whisper_n_len",
            "_ggml_type_sizef",
            "_ggml_sigmoid",
            "_whisper_full_get_segment_t0",
            "_ggml_exp_inplace",
            "_ggml_map_custom3_inplace",
            "_ggml_backend_sched_graph_compute_async",
            "_quantize_iq4_xs",
            "_ggml_cpu_has_sse3",
            "_ggml_gallocr_get_buffer_size",
            "_ggml_conv_1d_dw_ph",
            "__ZN28qvac_lib_inference_addon_cpp5AddonIN32qvac_lib_inference_addon_whisper22WhisperCppModelWrapperEE16jsOutputCallbackEP10uv_async_s",
            "_ggml_compute_forward_dup",
            "_ggml_mul_mat_set_prec",
            "_ggml_fp32_to_bf16_row",
            "_ggml_get_tensor",
            "_ggml_rwkv_wkv6",
            "_ggml_ssm_scan",
            "_quantize_row_q8_K_generic",
            "_ggml_new_f32",
            "_ggml_vec_dot_iq4_nl_q8_0",
            "_ggml_compute_forward_opt_step_adamw",
            "_ggml_fopen",
            "_ggml_is_permuted",
            "_ggml_get_max_tensor_size",
            "_ggml_conv_2d",
            "_whisper_get_timings",
            "_ggml_gelu_erf_inplace",
            "_ggml_vec_dot_iq3_s_q8_K",
            "_bare_register_module_v0",
            "_ggml_backend_cpu_buffer_from_ptr",
            "_ggml_compute_forward_roll",
            "_dequantize_row_iq1_s",
            "_ggml_view_2d",
            "__ZN32qvac_lib_inference_addon_whisper22WhisperCppModelWrapperC1ERKNS_13WhisperConfigEb",
            "_ggml_backend_buft_get_alloc_size",
            "_quantize_row_q8_1",
            "_ggml_group_norm_inplace",
            "_ggml_print_objects",
            "__ZN32qvac_lib_inference_addon_whisper15WhisperCppModel19execChunkAndProcessERKNSt3__16vectorIfNS1_9allocatorIfEEEEi",
            "_ggml_get_i32_nd",
            "_ggml_compute_forward_sum_rows",
            "_ggml_get_mem_size",
            "_whisper_model_n_text_head",
            "_ggml_compute_forward_log",
            "_quantize_row_iq2_s_ref",
            "__ZN32qvac_lib_inference_addon_whisper22WhisperVADCaptionModel11postProcessERKNSt3__16vectorINS_10TranscriptENS1_9allocatorIS3_EEEE",
            "_dequantize_row_tq2_0",
            "_ggml_vec_dot_q5_K_q8_K",
            "_ggml_rope_multi_back",
            "_ggml_repeat_4d",
            "__ZN28qvac_lib_inference_addon_cpp11JsInterfaceINS_5AddonIN32qvac_lib_inference_addon_whisper22WhisperCppModelWrapperEEEE14createInstanceEP8js_env_sP18js_callback_info_s",
            "_ggml_threadpool_chunk_set",
            "_ggml_backend_cpu_set_threadpool",
            "_whisper_full_n_segments_from_state",
            "_whisper_token_count",
            "__ZN32qvac_lib_inference_addon_whisper24WhisperDefaultBatchModel11execProcessERKNSt3__16vectorIfNS1_9allocatorIfEEEE",
            "_ggml_pool_2d",
            "_ggml_compute_forward_get_rows_back",
            "_ggml_fp32_to_bf16",
            "_ggml_cpu_has_avx512_bf16",
            "_ggml_compute_forward_reshape",
            "_quantize_row_q4_K_ref",
            "__ZN32qvac_lib_inference_addon_whisper20WhisperVADBatchModel14unloadVadModelEv",
            "_ggml_backend_buffer_init_tensor",
            "_ggml_mul_mat_id",
            "_whisper_lang_id",
            "__ZN32qvac_lib_inference_addon_whisper22WhisperCppModelWrapper23setTranscriptionProfileENS_20TranscriptionProfileE",
            "__ZNK32qvac_lib_inference_addon_whisper22WhisperVADCaptionModel9isCaptionEv",
            "_ggml_cpu_init",
            "_ggml_sin",
            "__ZN32qvac_lib_inference_addon_whisper20WhisperVADBatchModel17transcribeSegmentEP15whisper_contextRKNS0_10VADSegmentE",
            "_ggml_init",
            "_ggml_is_contiguous",
            "_whisper_n_vocab",
            "_ggml_vec_dot_iq3_xxs_q8_K_generic",
            "_ggml_compute_forward_conv_2d_dw",
            "_whisper_full_get_segment_speaker_turn_next",
            "_quantize_iq3_s",
            "_ggml_backend_blas_set_n_threads",
            "_quantize_row_q8_0_ref",
            "_whisper_model_n_text_ctx",
            "_ggml_acc",
            "_ggml_gemm_q4_K_8x8_q8_K",
            "_quantize_iq2_xs",
            "_ggml_backend_is_blas",
            "__ZN4ggml3cpu6repack4gemvI10block_q4_0Lx8ELx8EL9ggml_type8EEEviPfmPKvS7_ii",
            "_ggml_vec_dot_q3_K_q8_K_generic",
            "_whisper_full_get_segment_text_from_state",
            "_ggml_are_same_shape",
            "_quantize_row_tq2_0_ref",
            "__ZN32qvac_lib_inference_addon_whisper22WhisperVADCaptionModelC1ERNS_13WhisperConfigE",
            "_whisper_is_multilingual",
            "_whisper_pcm_to_mel_with_state",
            "_ggml_is_contiguous_1",
            "_ggml_log_inplace",
            "_ggml_neg_inplace",
            "_ggml_hash_set_new",
            "__ZN32qvac_lib_inference_addon_whisper11loadWeightsEP8js_env_sP18js_callback_info_s",
            "_ggml_backend_dev_init",
            "_ggml_cross_entropy_loss",
            "_quantize_row_iq3_xxs_ref",
            "_ggml_unary",
            "_ggml_nrows",
            "_whisper_model_n_audio_layer",
            "__ZNK32qvac_lib_inference_addon_whisper24WhisperDefaultBatchModel19createWhisperParamsEv",
            "_ggml_backend_view_init",
            "_ggml_is_matrix",
            "_ggml_free",
            "_ggml_time_us",
            "_ggml_map_custom2_inplace",
            "_ggml_backend_sched_alloc_graph",
            "_ggml_graph_n_nodes",
            "__ZN32qvac_lib_inference_addon_whisper15WhisperCppModel16formattingOutputERKNSt3__16vectorINS_10TranscriptENS1_9allocatorIS3_EEEE",
            "_whisper_full_get_token_p_from_state",
            "_ggml_cont_1d",
            "_ggml_gemv_q4_0_4x4_q8_0",
            "_ggml_graph_compute",
            "_whisper_free_context_params",
            "_ggml_is_numa",
            "__ZN4ggml3cpu13tensor_traitsD2Ev",
            "_whisper_decode",
            "_ggml_compute_forward_repeat",
            "__Z19ggml_quantize_mat_tILx4EL9ggml_type8EEvPKfPvxx",
            "_ggml_fp32_to_fp16_row",
            "_ggml_is_contiguous_2",
            "_ggml_add1_inplace",
            "_ggml_backend_sched_free",
            "__ZNK32qvac_lib_inference_addon_whisper13WhisperConfig12getParameterENS_16WhisperParameterE",
            "_ggml_backend_sched_get_n_splits",
            "_ggml_compute_forward_rwkv_wkv7",
            "_ggml_backend_tensor_copy_async",
            "__ZN4ggml3cpu6repack6repackI12block_iq4_nlLx4ELx4EEEiP11ggml_tensorPKvm",
            "_ggml_backend_metal_init",
            "_ggml_compute_forward_conv_transpose_2d",
            "_ggml_backend_alloc_buffer",
            "_ggml_get_data",
            "_ggml_add",
            "_ggml_set_f32_1d",
            "_ggml_mean",
            "_ggml_mul_mat",
            "_ggml_can_repeat",
            "_whisper_model_n_audio_head",
            "_ggml_tensor_overhead",
            "__ZN32qvac_lib_inference_addon_whisper6statusEP8js_env_sP18js_callback_info_s",
            "_ggml_vec_dot_q8_0_q8_0",
            "_ggml_silu",
            "_ggml_backend_buft_get_alignment",
            "_ggml_graph_get_tensor",
            "_whisper_full_get_segment_no_speech_prob_from_state",
            "_dequantize_row_iq2_xxs",
            "_ggml_cpu_has_avx512_vnni",
            "_ggml_quantize_mat_q8_0_4x4_generic",
            "_ggml_set_f32_nd",
            "_ggml_build_forward_expand",
            "_whisper_lang_str_full",
            "_ggml_fp32_to_fp16",
            "_ggml_backend_cpu_set_n_threads",
            "_whisper_full_get_token_data",
            "_ggml_backend_load_all_from_path",
            "__ZN32qvac_lib_inference_addon_whisper9setLoggerEP8js_env_sP18js_callback_info_s",
            "_quantize_q4_0",
            "_whisper_model_n_vocab",
            "_ggml_top_k",
            "_ggml_backend_tensor_memset",
            "_ggml_backend_guid",
            "_ggml_pool_2d_back",
            "_ggml_backend_buffer_get_alloc_size",
            "_ggml_is_transposed",
            "_ggml_backend_metal_buffer_from_ptr",
            "_ggml_graph_add_node",
            "_ggml_set_input",
            "_ggml_compute_forward_pool_2d",
            "_ggml_compute_forward_sub",
            "_ggml_rms_norm_back",
            "_ggml_diag_mask_zero_inplace",
            "_ggml_cast",
            "_quantize_row_q3_K",
            "_ggml_win_part",
            "_ggml_vec_dot_q2_K_q8_K",
            "__ZN32qvac_lib_inference_addon_whisper24WhisperDefaultBatchModel12runtimeStatsEv",
            "_ggml_gelu_inplace",
            "__ZN32qvac_lib_inference_addon_whisper4loadEP8js_env_sP18js_callback_info_s",
            "_ggml_backend_buffer_init",
            "_quantize_row_q4_1",
            "_whisper_full_lang_id",
            "__ZN32qvac_lib_inference_addon_whisper13WhisperConfig16loadFromJSObjectERN28qvac_lib_inference_addon_cpp2js6ObjectEP8js_env_s",
            "_ggml_gallocr_new_n",
            "_ggml_critical_section_start",
            "_ggml_view_1d",
            "_ggml_gallocr_alloc_graph",
            "_ggml_diag_mask_inf",
            "_ggml_win_unpart",
            "_ggml_graph_clear",
            "_whisper_init_from_file_with_params",
            "_ggml_sqrt_inplace",
            "_ggml_vec_dot_f16",
            "_whisper_full_get_token_text_from_state",
            "_ggml_step",
            "_whisper_full_get_segment_text",
            "_ggml_conv_2d_sk_p0",
            "_ggml_is_scalar",
            "_ggml_diag_mask_zero",
            "_ggml_nbytes_pad",
            "_ggml_backend_get_max_size",
            "_ggml_new_tensor",
            "_quantize_row_q2_K_ref",
            "_ggml_soft_max_ext",
            "__ZN32qvac_lib_inference_addon_whisper20WhisperVADBatchModel15createVadParamsEv",
            "_dequantize_row_q5_0",
            "_ggml_flash_attn_back",
            "_quantize_q4_1",
            "_quantize_row_q4_0",
            "__ZNK32qvac_lib_inference_addon_whisper13WhisperConfig15getOutputFormatERKNSt3__18optionalINS_14ParameterValueEEE",
            "_ggml_backend_buffer_is_host",
            "__ZN4ggml3cpu6repack6repackI10block_q4_KLx8ELx8EEEiP11ggml_tensorPKvm",
            "_ggml_status_to_string",
            "_ggml_tallocr_new",
            "_iq3xs_free_impl",
            "_ggml_soft_max_ext_back_inplace",
            "__Z40qvac_lib_inference_addon_whisper_exportsP8js_env_sP10js_value_s",
            "__ZN32qvac_lib_inference_addon_whisper13WhisperConfig22getWhisperVadCppParamsEv",
            "_ggml_roll",
            "_ggml_compute_forward_group_norm",
            "_ggml_set_1d_inplace",
            "_ggml_compute_forward_tanh",
            "__ZN32qvac_lib_inference_addon_whisper20WhisperVADBatchModel17detectVadSegmentsEP19whisper_vad_contextRKNSt3__16vectorIfNS3_9allocatorIfEEEERK18whisper_vad_params",
            "_ggml_compute_forward_cont",
            "_ggml_print_object",
            "_whisper_full_n_segments",
            "_dequantize_row_q4_0",
            "_ggml_gallocr_new",
            "__ZN32qvac_lib_inference_addon_whisper13releaseLoggerEP8js_env_sP18js_callback_info_s",
            "_whisper_init_with_params_no_state",
            "_ggml_vec_dot_q5_1_q8_1_generic",
            "_ggml_tanh_inplace",
            "_ggml_vec_dot_q8_0_q8_0_generic",
            "__ZN32qvac_lib_inference_addon_whisper15getOutputFormatERKNSt3__18optionalINS_14ParameterValueEEE",
            "__ZN32qvac_lib_inference_addon_whisper15WhisperCppModelD0Ev",
            "_ggml_backend_sched_set_tensor_backend",
            "_ggml_backend_reg_name",
            "_ggml_backend_init_best",
            "_ggml_backend_sched_synchronize",
            "_ggml_cpu_has_f16c",
            "_ggml_compute_forward_div",
            "_whisper_full_get_token_text",
            "_ggml_reshape_3d",
            "_ggml_backend_buffer_get_usage",
            "__ZN28qvac_lib_inference_addon_cpp5AddonIN32qvac_lib_inference_addon_whisper22WhisperCppModelWrapperEE12getNextPieceERNSt3__16vectorIfNS4_9allocatorIfEEEEm",
            "_ggml_view_tensor",
            "_ggml_cpu_has_avx512_vbmi",
            "__ZN32qvac_lib_inference_addon_whisper22WhisperVADCaptionModelC2ERNS_13WhisperConfigE",
            "__ZN32qvac_lib_inference_addon_whisper20WhisperVADBatchModel11execProcessERKNSt3__16vectorIfNS1_9allocatorIfEEEE",
            "_quantize_row_q8_0_generic",
            "_ggml_op_symbol",
            "_ggml_used_mem",
            "_ggml_gelu_erf",
            "_ggml_vec_dot_tq1_0_q8_K_generic",
            "_ggml_diag",
            "_ggml_rope_ext_back",
            "_whisper_token_not",
            "_ggml_graph_get_grad_acc",
            "_dequantize_row_q6_K",
            "_ggml_backend_load_all",
            "_ggml_fp16_to_fp32",
            "_ggml_compute_forward_ssm_scan",
            "_iq2xs_free_impl",
            "_dequantize_row_iq2_xs",
            "_ggml_backend_buft_get_device",
            "__ZN4ggml3cpu6repack6repackI10block_q4_0Lx8ELx8EEEiP11ggml_tensorPKvm",
            "_ggml_bf16_to_fp32",
            "_ggml_add_inplace",
            "_quantize_row_q3_K_ref",
            "_ggml_log_callback_default",
            "_whisper_init_from_buffer_with_params_no_state",
            "_ggml_time_init",
            "_quantize_row_q6_K",
            "__ZN28qvac_lib_inference_addon_cpp5AddonIN32qvac_lib_inference_addon_whisper22WhisperCppModelWrapperEEC2IJP8js_env_sP10js_value_sS8_S8_NS1_13WhisperConfigEbEEEDpT_",
            "_ggml_backend_buft_get_max_size",
            "_ggml_compute_forward_gla",
            "_quantize_row_q8_1_ref",
            "__ZN4ggml3cpu6repack4gemmI10block_q4_0Lx4ELx4EL9ggml_type8EEEviPfmPKvS7_ii",
            "_ggml_set_loss",
            "_whisper_init_from_file_no_state",
            "_ggml_compute_forward_flash_attn_ext",
            "_ggml_aligned_free",
            "__ZN32qvac_lib_inference_addon_whisper24WhisperDefaultBatchModelC1ERNS_13WhisperConfigEb",
            "__ZN32qvac_lib_inference_addon_whisper15WhisperCppModel15splitIntoChunksERKNSt3__16vectorIfNS1_9allocatorIfEEEEfi",
            "_ggml_map_custom3",
            "_ggml_cpu_has_ssse3",
            "_ggml_clamp",
            "_ggml_cpu_get_sve_cnt",
            "_ggml_nbytes",
            "_ggml_backend_load",
            "_ggml_sum_rows",
            "_ggml_vec_dot_q5_K_q8_K_generic",
            "_ggml_flash_attn_ext_set_prec",
            "_ggml_backend_buffer_set_usage",
            "__Z35ggml_backend_cpu_repack_buffer_typev",
            "_ggml_backend_sched_get_n_copies",
            "_ggml_compute_forward_win_unpart",
            "_ggml_is_vector",
            "_ggml_ssm_conv",
            "__ZN4ggml3cpu6repack4gemvI10block_q4_0Lx8ELx4EL9ggml_type8EEEviPfmPKvS7_ii",
            "_ggml_backend_supports_buft",
            "_ggml_backend_buffer_clear",
            "_ggml_cpu_fp32_to_fp16",
            "_ggml_compute_forward_hardsigmoid",
            "_ggml_compute_forward_count_equal",
            "_quantize_row_q5_K_ref",
            "_ggml_compute_forward_pad",
            "_ggml_n_dims",
            "_ggml_compute_forward_sum",
            "_quantize_iq4_nl",
            "_whisper_encode_with_state",
            "_whisper_vad_free",
            "_ggml_set",
            "_ggml_silu_back",
            "_dequantize_row_iq4_xs",
            "__ZN4ggml3cpu17extra_buffer_typeD1Ev",
            "_ggml_exp",
            "_ggml_graph_node",
            "_ggml_graph_compute_with_ctx",
            "_ggml_backend_get_alignment",
            "__ZN32qvac_lib_inference_addon_whisper24WhisperDefaultBatchModelD2Ev",
            "_ggml_backend_offload_op",
            "_whisper_full_default_params_by_ref",
            "_ggml_conv_1d",
            "_ggml_backend_tensor_alloc",
            "__ZN32qvac_lib_inference_addon_whisper15WhisperCppModel11postProcessERKNSt3__16vectorINS_10TranscriptENS1_9allocatorIS3_EEEE",
            "__ZN32qvac_lib_inference_addon_whisper22WhisperCppModelWrapper12runtimeStatsEv",
            "_ggml_blck_size",
            "_ggml_vec_dot_q5_0_q8_0",
            "_whisper_init_with_params",
            "_ggml_log_set",
            "_ggml_new_tensor_3d",
            "_ggml_backend_dev_offload_op",
            "_ggml_set_no_alloc",
            "_ggml_is_contiguously_allocated",
            "_ggml_quantize_requires_imatrix",
            "_quantize_row_iq4_nl_ref",
            "_whisper_init_from_buffer",
            "__ZN4ggml3cpu6repack6repackI10block_q4_0Lx4ELx4EEEiP11ggml_tensorPKvm",
            "_ggml_compute_forward_custom",
            "_ggml_tallocr_alloc",
            "_ggml_gemv_q4_0_4x4_q8_0_generic",
            "_ggml_custom_4d",
            "_whisper_vad_probs",
            "_ggml_compute_forward_ssm_conv",
            "_whisper_free_state",
            "__ZN32qvac_lib_inference_addon_whisper22WhisperCppModelWrapper6unloadEv",
            "_ggml_backend_graph_plan_compute",
            "_whisper_full_get_token_id",
            "_ggml_compute_forward_add_non_quantized",
            "_whisper_vad_segments_get_segment_t0",
            "_ggml_compute_forward_cpy",
            "_ggml_format_name",
            "_ggml_type_name",
            "_whisper_log_set",
            "_ggml_compute_forward_diag_mask_inf",
            "_quantize_row_iq3_s_ref",
            "_ggml_conv_2d_dw_direct",
            "_ggml_get_mem_buffer",
            "_ggml_vec_dot_iq4_xs_q8_K_generic",
            "_ggml_threadpool_params_match",
            "_whisper_full_get_segment_no_speech_prob",
            "_ggml_compute_forward_permute",
            "_ggml_sgn",
            "_ggml_compute_forward_mul",
            "_ggml_is_empty",
            "_ggml_backend_graph_plan_free",
            "_whisper_bench_memcpy_str",
            "__ZN32qvac_lib_inference_addon_whisper24WhisperDefaultBatchModelD0Ev",
            "__ZN4ggml3cpu17extra_buffer_typeD2Ev",
            "_ggml_compute_forward_pad_reflect_1d",
            "_ggml_cos",
            "_ggml_sub",
            "_ggml_graph_reset",
            "_ggml_vec_dot_q5_0_q8_0_generic",
            "_ggml_argsort",
            "_ggml_compute_forward_map_custom1",
            "_quantize_q5_1",
            "_whisper_vad_segments_from_samples",
            "_ggml_cpu_has_vxe",
            "_whisper_init_state",
            "_ggml_cpu_has_sme",
            "__ZN4ggml3cpu6repack4gemvI10block_q4_0Lx4ELx4EL9ggml_type8EEEviPfmPKvS7_ii",
            "_whisper_token_translate",
            "_dequantize_row_iq4_nl",
            "_ggml_gemv_q4_0_4x8_q8_0_generic",
            "_ggml_cpu_has_amx_int8",
            "_whisper_full_get_segment_t0_from_state",
            "_whisper_reset_timings",
            "_ggml_im2col_back",
            "_ggml_add_rel_pos_inplace",
            "__ZN32qvac_lib_inference_addon_whisper24WhisperDefaultBatchModelD1Ev",
            "_ggml_relu",
            "_whisper_token_solm",
            "__ZN32qvac_lib_inference_addon_whisper5pauseEP8js_env_sP18js_callback_info_s",
            "_ggml_compute_forward_soft_max_ext_back",
            "_ggml_compute_forward_transpose",
            "_ggml_backend_dev_by_name",
            "__ZN32qvac_lib_inference_addon_whisper20WhisperVADBatchModel13resetVadModelEv",
            "__ZN32qvac_lib_inference_addon_whisper14createInstanceEP8js_env_sP18js_callback_info_s",
            "__ZN32qvac_lib_inference_addon_whisper8activateEP8js_env_sP18js_callback_info_s",
            "_bare_get_module_name_v0",
            "_ggml_vec_dot_q6_K_q8_K_generic",
            "_ggml_backend_dev_supports_op",
            "_ggml_vec_dot_iq1_m_q8_K",
            "_ggml_gelu_quick",
            "_ggml_backend_sched_graph_compute",
            "_ggml_pad",
            "_quantize_row_q4_1_ref",
            "__ZN32qvac_lib_inference_addon_whisper26WhisperDefaultCaptionModelC2ERNS_13WhisperConfigEb",
            "_ggml_conv_1d_ph",
            "_quantize_row_q8_1_generic",
            "_ggml_compute_forward_add_rel_pos",
            "_ggml_set_i32_1d",
            "_ggml_compute_forward_win_part",
            "_ggml_quantize_init",
            "_ggml_vec_dot_q4_1_q8_1",
            "_whisper_token_beg",
            "_ggml_backend_dev_type",
            "_ggml_pad_reflect_1d",
            "_ggml_backend_get_device",
            "_ggml_gallocr_reserve_n",
            "__ZN32qvac_lib_inference_addon_whisper15WhisperCppModel7processERKNSt3__16vectorIfNS1_9allocatorIfEEEEi",
            "_ggml_get_next_tensor",
            "__Z19createWhisperConfigP8js_env_sRN28qvac_lib_inference_addon_cpp2js6ObjectE",
            "_ggml_graph_overhead",
            "__ZN32qvac_lib_inference_addon_whisper22WhisperCppModelWrapper7processERKNSt3__16vectorIfNS1_9allocatorIfEEEENS1_8functionIFvRKNS2_INS_10TranscriptENS3_IS9_EEEEEEE",
            "_ggml_backend_device_register",
            "_whisper_model_n_text_state",
            "_ggml_log_internal",
            "_ggml_get_type_traits_cpu",
            "_ggml_abs",
            "_whisper_init_from_buffer_with_params",
            "_ggml_cpu_bf16_to_fp32",
            "_ggml_graph_overhead_custom",
            "_dequantize_row_q8_0",
            "_ggml_hash_size",
            "__ZN32qvac_lib_inference_addon_whisper7getModeERKNS_13WhisperConfigE",
            "_ggml_conv_transpose_2d_p0",
            "_ggml_cpu_fp32_to_bf16",
            "__ZN4ggml3cpu6repack4gemvI10block_q4_KLx8ELx8EL9ggml_type15EEEviPfmPKvS7_ii",
            "_ggml_new_buffer",
            "_ggml_threadpool_new",
            "_quantize_row_q4_K",
            "_ggml_vec_dot_f32",
            "_ggml_numa_init",
            "_ggml_conv_2d_dw",
            "_dequantize_row_iq2_s",
            "_ggml_set_zero",
            "_ggml_set_f32",
            "_ggml_backend_buffer_reset",
            "_ggml_rope_yarn_corr_dims",
            "_dequantize_row_q5_1",
            "_ggml_are_same_stride",
            "_ggml_vec_dot_q4_K_q8_K",
            "_ggml_reshape_2d",
            "_ggml_abs_inplace",
            "_ggml_build_backward_expand",
            "_ggml_vec_dot_tq2_0_q8_K",
            "_whisper_token_lang",
            "_ggml_vec_dot_q4_K_q8_K_generic",
            "_ggml_backend_event_new",
            "_ggml_backend_dev_host_buffer_type",
            "_ggml_cpu_has_vsx",
            "_ggml_graph_get_grad",
            "_ggml_backend_reg_by_name",
            "_ggml_backend_reg_dev_get",
            "_ggml_compute_forward_soft_max",
            "_ggml_vec_dot_q2_K_q8_K_generic",
            "_whisper_vad_segments_from_probs",
            "_ggml_compute_forward_exp",
            "_quantize_q4_K",
            "_ggml_gemv_q4_0_4x8_q8_0",
            "_ggml_graph_nodes",
            "_ggml_ftype_to_ggml_type",
            "_ggml_sub_inplace",
            "_ggml_vec_dot_iq2_xxs_q8_K_generic",
            "_ggml_unary_inplace",
            "__ZN32qvac_lib_inference_addon_whisper22WhisperCppModelWrapper17initializeBackendEv",
            "_ggml_threadpool_chunk_add",
            "_ggml_rope_custom_inplace",
            "_ggml_compute_forward_relu",
            "_ggml_gallocr_free",
            "_ggml_compute_forward_clamp",
            "_ggml_gemm_q4_0_8x8_q8_0_generic",
            "_ggml_count_equal",
            "__ZN32qvac_lib_inference_addon_whisper20WhisperVADBatchModelC2ERNS_13WhisperConfigE",
            "_ggml_get_data_f32",
            "_ggml_set_2d",
            "_ggml_element_size",
            "_quantize_iq2_xxs",
            "__ZN32qvac_lib_inference_addon_whisper22WhisperVADCaptionModelD1Ev",
            "_ggml_critical_section_end",
            "_whisper_full_parallel",
            "_ggml_vec_dot_q5_1_q8_1",
            "_ggml_backend_supports_op",
            "_ggml_backend_graph_copy",
            "_ggml_vec_dot_iq2_xs_q8_K",
            "_ggml_cont_3d",
            "_ggml_vec_dot_q4_0_q8_0",
            "_ggml_gemv_q4_0_8x8_q8_0_generic",
            "_ggml_norm",
            "_ggml_get_i32_1d",
            "_ggml_compute_forward_acc",
            "_ggml_vec_soft_max_f32",
            "_ggml_rwkv_wkv7",
            "_ggml_view_3d",
            "_quantize_row_q4_0_ref",
            "_ggml_aligned_malloc",
            "_ggml_backend_sched_reset",
            "_quantize_row_q5_1",
            "__ZN32qvac_lib_inference_addon_whisper24WhisperDefaultBatchModelC2ERNS_13WhisperConfigEb",
            "_ggml_compute_forward_get_rows",
            "__ZN32qvac_lib_inference_addon_whisper22WhisperCppModelWrapper20set_weights_for_fileERKNSt3__112basic_stringIcNS1_11char_traitsIcEENS1_9allocatorIcEEEERKNS1_4spanIKhLm18446744073709551615EEEb",
            "_ggml_map_custom1_inplace",
            "_whisper_full_lang_id_from_state",
            "_ggml_elu_inplace",
            "_ggml_backend_compare_graph_backend",
            "_quantize_q6_K",
            "_whisper_vad_init_from_file_with_params",
            "_ggml_cycles_per_ms",
            "_ggml_compute_forward_sqrt",
            "_quantize_row_tq1_0",
            "__ZN32qvac_lib_inference_addon_whisper6cancelEP8js_env_sP18js_callback_info_s",
            "__ZN32qvac_lib_inference_addon_whisper26WhisperDefaultCaptionModelC1ERNS_13WhisperConfigEb",
            "_ggml_flash_attn_ext",
            "_ggml_fp32_to_bf16_row_ref",
            "_whisper_context_default_params",
            "_ggml_set_param",
            "_ggml_backend_buffer_copy_tensor",
            "__ZN32qvac_lib_inference_addon_whisper15WhisperCppModelD1Ev",
            "_ggml_log",
            "_quantize_q5_K",
            "_ggml_cpu_has_avx2",
            "_ggml_sqrt",
            "_ggml_compute_forward_set",
            "__ZN32qvac_lib_inference_addon_whisper15WhisperCppModel4loadEv",
            "__ZN28qvac_lib_inference_addon_cpp11JsInterfaceINS_5AddonIN32qvac_lib_inference_addon_whisper22WhisperCppModelWrapperEEEE6appendEP8js_env_sP18js_callback_info_s",
            "_whisper_token_prev",
            "_whisper_token_nosp",
            "_ggml_argmax",
            "_whisper_model_type",
            "_ggml_gemm_iq4_nl_4x4_q8_0_generic",
            "_ggml_backend_buft_alloc_buffer",
            "_ggml_is_quantized",
            "_ggml_graph_cpy",
            "_ggml_gemm_q4_0_4x4_q8_0",
            "__ZN32qvac_lib_inference_addon_whisper20WhisperVADBatchModel12loadVadModelEv",
            "_ggml_new_i32",
            "_ggml_repeat",
            "_ggml_compute_forward_im2col",
            "_ggml_soft_max_inplace",
            "_ggml_upscale",
            "__ZN32qvac_lib_inference_addon_whisper13unloadWeightsEP8js_env_sP18js_callback_info_s",
            "_dequantize_row_q8_K",
            "_ggml_graph_view",
            "_ggml_diag_mask_inf_inplace",
            "_whisper_free_params",
            "_ggml_scale",
            "_ggml_threadpool_params_default",
            "_ggml_reshape_1d",
            "_ggml_cpu_has_bmi2",
            "_ggml_graph_dump_dot",
            "_ggml_backend_buft_name",
            "_ggml_compute_forward_pool_2d_back",
            "_ggml_vec_dot_iq2_s_q8_K_generic",
            "_ggml_backend_buffer_get_max_size",
            "_ggml_backend_reg_dev_count",
            "_ggml_compute_forward_argsort",
            "_ggml_cpu_extra_compute_forward",
            "_ggml_pool_1d",
            "_dequantize_row_q4_1",
            "_whisper_get_logits_from_state",
            "_ggml_gemm_q4_0_4x8_q8_0",
            "__ZNK32qvac_lib_inference_addon_whisper24WhisperDefaultBatchModel35convertWhisperSegmentsToTranscriptsEP15whisper_context",
            "_ggml_unary_op_name",
            "_ggml_bf16_to_fp32_row",
            "_ggml_hardswish",
            "_ggml_compute_forward_scale",
            "_ggml_div_inplace",
            "_ggml_div",
            "_ggml_backend_metal_buffer_type",
            "_ggml_vec_dot_iq3_xxs_q8_K",
            "_ggml_view_4d",
            "_dequantize_row_q4_K",
            "_ggml_get_rel_pos",
            "_ggml_quantize_mat_q8_0_4x8_generic",
            "_ggml_backend_dev_backend_reg",
            "_quantize_tq2_0",
            "_ggml_vec_dot_tq1_0_q8_K",
            "__ZN28qvac_lib_inference_addon_cpp5AddonIN32qvac_lib_inference_addon_whisper22WhisperCppModelWrapperEE7processEv",
            "_whisper_full_get_token_id_from_state",
            "_ggml_sigmoid_inplace",
            "_ggml_backend_metal_reg",
            "_ggml_cpu_has_fma",
            "_quantize_row_q6_K_ref",
            "_ggml_guid_matches",
            "_ggml_quantize_mat_q8_0_4x8",
            "_ggml_compute_forward_rope_back",
            "_ggml_compute_forward_mean",
            "_ggml_new_graph_custom",
            "_ggml_backend_alloc_ctx_tensors",
            "_ggml_quantize_mat_q8_0_4x4",
            "_ggml_upscale_ext",
            "_whisper_set_mel_with_state",
            "_ggml_backend_sched_get_tensor_backend",
            "_ggml_backend_init_by_type",
            "_whisper_decode_with_state",
            "_whisper_vad_n_probs",
            "__ZNK32qvac_lib_inference_addon_whisper15WhisperCppModel15cleanBlankAudioENSt3__117basic_string_viewIcNS1_11char_traitsIcEEEE",
            "_dequantize_row_q5_K",
            "__ZN32qvac_lib_inference_addon_whisper13WhisperConfig19getWhisperCppParamsE25whisper_sampling_strategy",
            "_ggml_backend_event_record",
            "_ggml_backend_buft_is_host",
            "_ggml_backend_is_cpu",
            "_ggml_set_name",
            "_ggml_conv_transpose_1d",
            "_whisper_model_n_text_layer",
            "_ggml_permute",
            "_ggml_compute_forward_sin",
            "_ggml_vec_dot_tq2_0_q8_K_generic",
            "_whisper_n_len_from_state",
            "__ZN32qvac_lib_inference_addon_whisper22WhisperVADCaptionModelD0Ev",
            "_ggml_step_inplace",
            "_ggml_backend_dev_get",
            "_ggml_backend_multi_buffer_alloc_buffer",
            "_ggml_vec_dot_q4_0_q8_0_generic",
            "_whisper_init_from_buffer_no_state",
            "_whisper_vad_init_with_params",
            "_ggml_backend_tensor_get",
            "_ggml_backend_multi_buffer_set_usage",
            "_ggml_threadpool_pause",
            "_quantize_iq1_s",
            "_ggml_reshape_4d",
            "_ggml_compute_forward_hardswish",
            "_ggml_acc_inplace",
            "_ggml_backend_metal_capture_next_compute",
            "_ggml_backend_blas_init",
            "_ggml_backend_sched_get_buffer_size",
            "__ZN32qvac_lib_inference_addon_whisper24WhisperDefaultBatchModel18generateStatisticsEiRKNSt3__16vectorIfNS1_9allocatorIfEEEEP15whisper_context",
            "_ggml_vec_dot_iq3_s_q8_K_generic",
            "_ggml_compute_forward_conv_transpose_1d",
            "_ggml_gemm_q4_0_4x4_q8_0_generic",
            "__ZN32qvac_lib_inference_addon_whisper14ParameterValue12fromJSObjectERN28qvac_lib_inference_addon_cpp2js6ObjectEPNS_20BaseParameterMappingEP8js_env_s",
            "_ggml_compute_forward_abs",
            "_ggml_backend_graph_plan_create",
            "_ggml_compute_forward_silu_back",
            "_ggml_get_unary_op",
            "__ZN4ggml3cpu17extra_buffer_typeD0Ev",
            "_ggml_cos_inplace",
            "_ggml_cont_4d",
            "_whisper_full_get_segment_t1",
            "_ggml_set_1d",
            "_ggml_compute_forward_repeat_back",
            "_iq3xs_init_impl",
            "_ggml_tanh",
            "_ggml_compute_forward_cos",
            "_ggml_graph_print",
            "_ggml_backend_buffer_get_type",
            "_ggml_vec_dot_q3_K_q8_K",
            "_ggml_compute_forward_step",
            "_ggml_relu_inplace",
            "_ggml_backend_tensor_set_async",
            "__ZN32qvac_lib_inference_addon_whisper22WhisperCppModelWrapper6reloadEv",
            "_ggml_gemv_q4_0_8x8_q8_0",
            "_quantize_iq1_m",
            "_ggml_sgn_inplace",
            "_quantize_row_q5_1_ref",
            "__ZN32qvac_lib_inference_addon_whisper22WhisperCppModelWrapperD2Ev",
            "_ggml_quantize_mat_q8_K_4x8",
            "_whisper_lang_auto_detect_with_state",
            "_dequantize_row_tq1_0",
            "_ggml_cpy",
            "_ggml_compute_forward_pool_1d",
            "_ggml_gemm_q4_0_4x8_q8_0_generic",
            "_ggml_rope_multi",
            "_whisper_encode",
            "_whisper_vad_detect_speech",
            "_whisper_full_get_segment_speaker_turn_next_from_state",
            "_whisper_init_no_state",
            "__ZN32qvac_lib_inference_addon_whisper15WhisperCppModel19preprocessAudioDataERKNSt3__16vectorIhNS1_9allocatorIhEEEERKNS1_12basic_stringIcNS1_11char_traitsIcEENS3_IcEEEE",
            "_ggml_sin_inplace",
            "__ZN32qvac_lib_inference_addon_whisper4stopEP8js_env_sP18js_callback_info_s",
            "_ggml_cpu_has_arm_fma",
            "__ZN32qvac_lib_inference_addon_whisper6appendEP8js_env_sP18js_callback_info_s",
            "_ggml_cpu_has_matmul_int8",
            "_ggml_transpose",
            "__ZN32qvac_lib_inference_addon_whisper20WhisperVADBatchModelD2Ev",
            "_quantize_row_iq4_xs_ref",
            "_ggml_backend_synchronize",
            "_whisper_lang_max_id",
            "_ggml_compute_forward_get_rel_pos",
            "_whisper_full_default_params",
            "_ggml_barrier",
            "__Z19ggml_quantize_mat_tILx8EL9ggml_type8EEvPKfPvxx",
            "_whisper_full",
            "_quantize_row_q5_0",
            "_ggml_backend_sched_set_eval_callback",
            "_ggml_threadpool_free",
            "__ZN32qvac_lib_inference_addon_whisper26WhisperDefaultCaptionModelD1Ev",
            "__ZN4ggml3cpu6repack6repackI10block_q4_0Lx8ELx4EEEiP11ggml_tensorPKvm",
            "_ggml_backend_metal_set_abort_callback",
            "__ZN32qvac_lib_inference_addon_whisper19format_token_stringERKNSt3__112basic_stringIcNS0_11char_traitsIcEENS0_9allocatorIcEEEES8_",
            "_ggml_backend_tensor_copy",
            "_ggml_new_graph",
            "_ggml_reshape",
            "_ggml_scale_inplace",
            "__ZN4ggml3cpu13tensor_traitsD1Ev",
            "_ggml_backend_tensor_set",
            "_whisper_bench_ggml_mul_mat",
            "_ggml_gemm_iq4_nl_4x4_q8_0",
            "_whisper_full_get_segment_t1_from_state",
            "__ZN32qvac_lib_inference_addon_whisper20WhisperVADBatchModelD1Ev",
            "__ZN4ggml3cpu6repack4gemmI10block_q4_KLx8ELx8EL9ggml_type15EEEviPfmPKvS7_ii",
            "_ggml_cpu_has_fp16_va",
            "_ggml_dup_inplace",
            "_whisper_full_n_tokens_from_state",
            "_whisper_full_with_state",
            "_ggml_gelu_quick_inplace",
            "_ggml_get_no_alloc",
            "__ZN32qvac_lib_inference_addon_whisper22WhisperCppModelWrapper4loadEv",
            "_dequantize_row_iq3_xxs",
            "_ggml_fp16_to_fp32_row",
            "__ZN32qvac_lib_inference_addon_whisper24WhisperDefaultBatchModel9postResetEv",
            "_whisper_vad_segments_get_segment_t1",
            "_whisper_full_get_token_p",
            "_ggml_new_tensor_2d",
            "_ggml_compute_forward_diag",
            "_quantize_row_iq4_xs",
            "_whisper_init",
            "_ggml_vec_dot_bf16",
            "_whisper_n_text_ctx",
            "_ggml_compute_forward_rms_norm_back",
            "_ggml_group_norm",
            "_ggml_compute_forward_leaky_relu",
            "_ggml_soft_max_ext_back",
            "_ggml_compute_forward_argmax",
            "_whisper_vad_segments_n_segments",
            "_ggml_backend_reg_count",
            "_whisper_full_n_tokens",
            "__ZN32qvac_lib_inference_addon_whisper22WhisperCppModelWrapper20buildWhisperModelObjEv",
            "_ggml_is_3d",
            "_ggml_cont",
            "_whisper_model_type_readable",
            "_ggml_set_i32",
            "__ZN32qvac_lib_inference_addon_whisper20WhisperVADBatchModelC1ERNS_13WhisperConfigE",
            "_ggml_gemv_iq4_nl_4x4_q8_0_generic",
            "_ggml_elu",
            "_ggml_is_contiguous_channels",
            "_ggml_cpu_has_llamafile",
            "__ZN4ggml3cpu13tensor_traitsD0Ev",
            "__ZN32qvac_lib_inference_addon_whisper20WhisperVADBatchModel18processAllSegmentsERKNSt3__16vectorINS0_10VADSegmentENS1_9allocatorIS3_EEEE",
            "_whisper_ctx_init_openvino_encoder",
            "_whisper_token_to_str",
            "_ggml_backend_dev_supports_buft",
            "__ZN4ggml3cpu6repack4gemmI10block_q4_0Lx8ELx8EL9ggml_type8EEEviPfmPKvS7_ii",
            "_ggml_compute_forward_out_prod",
            "_ggml_neg",
            "_ggml_backend_cpu_set_abort_callback",
            "_quantize_row_q5_K",
            "_ggml_get_f32_nd",
            "_ggml_compute_forward_cross_entropy_loss",
            "_whisper_model_ftype",
            "_ggml_vec_log_soft_max_f32",
            "_ggml_l2_norm_inplace",
            "_ggml_new_tensor_4d",
            "_whisper_model_n_mels",
            "__ZN32qvac_lib_inference_addon_whisper22WhisperCppModelWrapperD1Ev",
            "_ggml_vec_dot_iq1_s_q8_K_generic",
            "_ggml_add_rel_pos",
            "_ggml_vec_dot_iq2_xs_q8_K_generic",
            "_ggml_time_ms",
            "_ggml_timestep_embedding",
            "_ggml_cpu_extra_work_size",
            "__ZN32qvac_lib_inference_addon_whisper6reloadEP8js_env_sP18js_callback_info_s",
            "_ggml_backend_buffer_free",
            "_ggml_backend_register",
            "__ZN28qvac_lib_inference_addon_cpp5AddonIN32qvac_lib_inference_addon_whisper22WhisperCppModelWrapperEEC1IJP8js_env_sP10js_value_sS8_S8_NS1_13WhisperConfigEbEEEDpT_",
            "__ZN32qvac_lib_inference_addon_whisper15WhisperCppModel6unloadEv",
            "_dequantize_row_q3_K",
            "_whisper_tokenize",
            "__ZN32qvac_lib_inference_addon_whisper20WhisperVADBatchModelD0Ev",
            "_quantize_row_iq4_nl",
            "_ggml_vec_dot_iq1_s_q8_K",
            "_ggml_backend_buffer_get_base",
            "_ggml_hash_set_reset",
            "_ggml_compute_forward_neg",
            "_whisper_get_logits",
            "_quantize_row_q8_K",
            "_ggml_cpu_has_wasm_simd",
            "_whisper_init_from_file",
            "_ggml_compute_forward_im2col_back_f32",
            "_ggml_cpu_has_sve",
            "_ggml_backend_tensor_get_async",
            "_whisper_print_timings",
            "_ggml_abort",
            "_ggml_backend_event_free",
            "_ggml_rope_ext",
            "__ZN32qvac_lib_inference_addon_whisper20WhisperVADBatchModel19extractSegmentAudioERKNSt3__16vectorIfNS1_9allocatorIfEEEERNS0_10VADSegmentEi",
            "_ggml_type_size",
            "_ggml_cpu_has_neon",
            "_ggml_graph_plan",
            "_ggml_cpu_has_avx",
            "_dequantize_row_iq1_m",
            "__ZN32qvac_lib_inference_addon_whisper6unloadEP8js_env_sP18js_callback_info_s",
            "_ggml_compute_forward_norm",
            "_ggml_backend_reg_get",
            "_ggml_cpu_has_riscv_v",
            "__ZN32qvac_lib_inference_addon_whisper15destroyInstanceEP8js_env_sP18js_callback_info_s",
            "_ggml_backend_metal_supports_family",
            "_ggml_backend_buffer_name",
            "_ggml_op_desc",
            "__ZN4ggml3cpu6repack4gemmI12block_iq4_nlLx4ELx4EL9ggml_type8EEEviPfmPKvS7_ii",
            "_ggml_backend_cpu_reg",
            "_ggml_is_contiguous_0",
            "_ggml_vec_dot_iq4_nl_q8_0_generic",
            "_ggml_mul",
            "_ggml_backend_cpu_buffer_type",
            "_ggml_compute_forward_cross_entropy_loss_back",
            "_ggml_compute_forward_sqr",
            "_ggml_hardsigmoid",
            "_ggml_row_size",
            "__ZN32qvac_lib_inference_addon_whisper26WhisperDefaultCaptionModelD0Ev",
            "__ZN4ggml3cpu6repack4gemvI12block_iq4_nlLx4ELx4EL9ggml_type8EEEviPfmPKvS7_ii",
            "_ggml_new_tensor_1d",
            "_ggml_op_name",
            "__ZN32qvac_lib_inference_addon_whisper26WhisperDefaultCaptionModelD2Ev",
            "_ggml_compute_forward_l2_norm",
            "_ggml_cpu_has_avx512",
            "_dequantize_row_iq3_s",
            "_ggml_cycles",
            "_ggml_out_prod",
            "_ggml_threadpool_params_init",
            "_ggml_add_cast",
            "_whisper_vad_free_segments",
            "_ggml_backend_buffer_get_alignment",
            "_ggml_gemv_iq4_nl_4x4_q8_0",
            "_ggml_sqr",
            "_ggml_vec_dot_iq2_s_q8_K",
            "_ggml_compute_forward_timestep_embedding",
            "__Z39ggml_backend_cpu_get_extra_buffers_typev",
            "_ggml_backend_graph_copy_free",
            "_ggml_backend_dev_by_type",
            "_ggml_backend_event_wait",
            "_ggml_gemv_q4_K_8x8_q8_K",
            "_ggml_compute_forward_upscale",
            "_ggml_backend_reg_get_proc_address",
            "_ggml_cpu_has_dotprod",
            "_ggml_backend_unload",
            "_ggml_compute_forward_rms_norm",
            "_ggml_backend_blas_reg",
            "_ggml_backend_dev_description",
            "_ggml_cpu_fp16_to_fp32",
            "_ggml_compute_forward_add",
            "_ggml_set_i32_nd",
            "_ggml_mul_inplace",
            "_ggml_concat",
            "_ggml_conv_1d_dw",
            "_ggml_get_name",
            "_quantize_row_tq2_0",
            "_ggml_unravel_index",
            "__ZNK32qvac_lib_inference_addon_whisper24WhisperDefaultBatchModel31calculateTotalTokensFromContextEP15whisper_context",
            "_ggml_compute_forward_diag_mask_zero",
            "__ZN32qvac_lib_inference_addon_whisper22WhisperVADCaptionModelD2Ev",
            "__ZN32qvac_lib_inference_addon_whisper15WhisperCppModel5resetEv",
            "_ggml_backend_dev_get_props",
            "_ggml_compute_forward_sigmoid",
            "_ggml_conv_2d_s1_ph",
            "_iq2xs_init_impl",
            "_ggml_l2_norm",
            "_whisper_model_n_audio_ctx",
            "_ggml_get_first_tensor",
            "_ggml_rms_norm_inplace",
            "_ggml_compute_forward_view",
            "_quantize_row_q8_K_ref",
            "_whisper_n_audio_ctx",
            "_quantize_row_tq1_0_ref",
            "__ZN32qvac_lib_inference_addon_whisper15WhisperCppModelC2ERNS_13WhisperConfigE",
            "_ggml_compute_forward_add1",
            "_whisper_full_get_token_data_from_state",
            "_ggml_compute_forward_arange",
            "_ggml_backend_buffer_get_size",
            "__ZN4ggml3cpu6repack4gemmI10block_q4_0Lx8ELx4EL9ggml_type8EEEviPfmPKvS7_ii",
            "_ggml_repeat_back",
            "_ggml_gelu",
            "_whisper_vad_default_params",
            "_ggml_compute_forward_elu",
            "_ggml_map_custom2",
            "_ggml_backend_dev_name",
            "_ggml_backend_alloc_ctx_tensors_from_buft",
            "_ggml_vec_dot_iq2_xxs_q8_K",
            "_ggml_backend_sched_reserve",
            "_ggml_backend_sched_new",
            "_ggml_compute_forward_sgn",
            "_ggml_gated_linear_attn",
            "_quantize_row_q5_0_ref",
            "_ggml_compute_forward_map_custom3",
            "_ggml_hash_set_free",
            "_ggml_rms_norm",
            "_ggml_opt_step_adamw",
            "_ggml_soft_max",
            "_ggml_dup_tensor",
            "_ggml_cpu_has_avx_vnni",
            "__ZN32qvac_lib_inference_addon_whisper15WhisperCppModelD2Ev",
            "_whisper_init_from_file_with_params_no_state",
            "_ggml_set_output",
            "_quantize_q5_0",
            "_ggml_vec_dot_iq1_m_q8_K_generic",
            "_quantize_q8_0",
            "_ggml_gemm_q4_0_8x8_q8_0",
            "__ZN32qvac_lib_inference_addon_whisper20WhisperVADBatchModel16createVadSegmentEP20whisper_vad_segmentsiRKNSt3__16vectorIfNS3_9allocatorIfEEEEi",
            "_ggml_set_inplace",
            "_ggml_reset",
            "_ggml_flash_attn_ext_get_prec",
            "_ggml_leaky_relu",
            "_ggml_graph_dup",
            "_whisper_token_eot",
            "_ggml_set_2d_inplace",
            "_ggml_backend_dev_buffer_type",
            "_ggml_gallocr_reserve",
            "_ggml_backend_dev_memory",
            "_quantize_q3_K",
            "_ggml_add1",
            "_ggml_vec_dot_q4_1_q8_1_generic",
            "_quantize_q2_K",
            "_ggml_backend_buffer_is_multi_buffer",
            "_ggml_quantize_free",
            "__ZNK32qvac_lib_inference_addon_whisper13WhisperConfig15getVadModelPathEv",
            "_ggml_cont_2d",
            "_quantize_row_q8_0",
            "_whisper_context_default_params_by_ref",
            "__ZN32qvac_lib_inference_addon_whisper22WhisperCppModelWrapperC2ERKNS_13WhisperConfigEb",
            "_ggml_compute_forward_rwkv_wkv6",
            "_ggml_get_rows"
          ],
          "weak": [
            "__ZNSt3__116__variant_detail12__visitation6__base12__dispatcherIJLm3ELm3EEE10__dispatchB8ue170006IOZNS0_12__assignmentINS0_8__traitsIJidNS_12basic_stringIcNS_11char_traitsIcEENS_9allocatorIcEEEEbEEEE16__generic_assignB8ue170006IRKNS0_17__copy_assignmentISE_LNS0_6_TraitE1EEEEEvOT_EUlRSM_OT0_E_JRNS0_6__baseILSI_1EJidSD_bEEERKSU_EEEDcSM_DpT0_",
            "__ZNSt3__116__variant_detail12__visitation6__base12__dispatcherIJLm0ELm0EEE10__dispatchB8ue170006IOZNS0_6__ctorINS0_8__traitsIJNS_9monostateENS_6vectorIN32qvac_lib_inference_addon_whisper10TranscriptENS_9allocatorISB_EEEENS9_INS_4pairINS_12basic_stringIcNS_11char_traitsIcEENSC_IcEEEENS_7variantIJdxEEEEENSC_ISN_EEEEN28qvac_lib_inference_addon_cpp6OutputISE_E5ErrorENSS_6LogMsgEEEEE19__generic_constructB8ue170006INS0_18__move_constructorISV_LNS0_6_TraitE1EEEEEvRSW_OT_EUlRS12_OT0_E_JRNS0_6__baseILSZ_1EJS8_SE_SP_ST_SU_EEEOS1A_EEEDcS12_DpT0_",
            "__ZZZN28qvac_lib_inference_addon_cpp5AddonIN32qvac_lib_inference_addon_whisper22WhisperCppModelWrapperEE26initializeProcessingThreadEP8js_env_sP10js_value_sS7_S7_ENKUlvE1_clEvENUlP11uv_handle_sE_8__invokeESA_",
            "__ZNSt3__116__variant_detail12__visitation6__base12__dispatcherIJLm1ELm1EEE10__dispatchB8ue170006IOZNS0_12__assignmentINS0_8__traitsIJidNS_12basic_stringIcNS_11char_traitsIcEENS_9allocatorIcEEEEbEEEE16__generic_assignB8ue170006IRKNS0_17__copy_assignmentISE_LNS0_6_TraitE1EEEEEvOT_EUlRSM_OT0_E_JRNS0_6__baseILSI_1EJidSD_bEEERKSU_EEEDcSM_DpT0_",
            "__ZZN28qvac_lib_inference_addon_cpp6logger8JsLogger13releaseLoggerEP8js_env_sP18js_callback_info_sENUlP11uv_handle_sE_8__invokeES7_",
            "__ZNSt3__116__variant_detail12__visitation6__base12__dispatcherIJLm1ELm1EEE10__dispatchB8ue170006IOZNS0_6__ctorINS0_8__traitsIJNS_9monostateENS_6vectorIN32qvac_lib_inference_addon_whisper10TranscriptENS_9allocatorISB_EEEENS9_INS_4pairINS_12basic_stringIcNS_11char_traitsIcEENSC_IcEEEENS_7variantIJdxEEEEENSC_ISN_EEEEN28qvac_lib_inference_addon_cpp6OutputISE_E5ErrorENSS_6LogMsgEEEEE19__generic_constructB8ue170006INS0_18__move_constructorISV_LNS0_6_TraitE1EEEEEvRSW_OT_EUlRS12_OT0_E_JRNS0_6__baseILSZ_1EJS8_SE_SP_ST_SU_EEEOS1A_EEEDcS12_DpT0_",
            "__ZNSt3__116__variant_detail12__visitation6__base12__dispatcherIJLm1ELm1EEE10__dispatchB8ue170006IOZNS0_6__ctorINS0_8__traitsIJidNS_12basic_stringIcNS_11char_traitsIcEENS_9allocatorIcEEEEbEEEE19__generic_constructB8ue170006IRKNS0_18__copy_constructorISE_LNS0_6_TraitE1EEEEEvRSF_OT_EUlRSN_OT0_E_JRNS0_6__baseILSI_1EJidSD_bEEERKSV_EEEDcSN_DpT0_",
            "__ZZZN28qvac_lib_inference_addon_cpp6logger8JsLogger9setLoggerEP8js_env_sP18js_callback_info_sENKUlvE0_clEvENUlP11uv_handle_sE_8__invokeES8_",
            "__ZNSt3__116__variant_detail12__visitation6__base12__dispatcherIJLm3ELm3EEE10__dispatchB8ue170006IOZNS0_6__ctorINS0_8__traitsIJNS_9monostateENS_6vectorIN32qvac_lib_inference_addon_whisper10TranscriptENS_9allocatorISB_EEEENS9_INS_4pairINS_12basic_stringIcNS_11char_traitsIcEENSC_IcEEEENS_7variantIJdxEEEEENSC_ISN_EEEEN28qvac_lib_inference_addon_cpp6OutputISE_E5ErrorENSS_6LogMsgEEEEE19__generic_constructB8ue170006INS0_18__move_constructorISV_LNS0_6_TraitE1EEEEEvRSW_OT_EUlRS12_OT0_E_JRNS0_6__baseILSZ_1EJS8_SE_SP_ST_SU_EEEOS1A_EEEDcS12_DpT0_",
            "__ZNSt3__116__variant_detail12__visitation6__base12__dispatcherIJLm0ELm0EEE10__dispatchB8ue170006IOZNS0_12__assignmentINS0_8__traitsIJidNS_12basic_stringIcNS_11char_traitsIcEENS_9allocatorIcEEEEbEEEE16__generic_assignB8ue170006IRKNS0_17__copy_assignmentISE_LNS0_6_TraitE1EEEEEvOT_EUlRSM_OT0_E_JRNS0_6__baseILSI_1EJidSD_bEEERKSU_EEEDcSM_DpT0_",
            "__ZNSt3__116__variant_detail12__visitation6__base12__dispatcherIJLm4ELm4EEE10__dispatchB8ue170006IOZNS0_6__ctorINS0_8__traitsIJNS_9monostateENS_6vectorIN32qvac_lib_inference_addon_whisper10TranscriptENS_9allocatorISB_EEEENS9_INS_4pairINS_12basic_stringIcNS_11char_traitsIcEENSC_IcEEEENS_7variantIJdxEEEEENSC_ISN_EEEEN28qvac_lib_inference_addon_cpp6OutputISE_E5ErrorENSS_6LogMsgEEEEE19__generic_constructB8ue170006INS0_18__move_constructorISV_LNS0_6_TraitE1EEEEEvRSW_OT_EUlRS12_OT0_E_JRNS0_6__baseILSZ_1EJS8_SE_SP_ST_SU_EEEOS1A_EEEDcS12_DpT0_",
            "__ZNSt3__116__variant_detail12__visitation6__base12__dispatcherIJLm0ELm0EEE10__dispatchB8ue170006IOZNS0_6__ctorINS0_8__traitsIJidNS_12basic_stringIcNS_11char_traitsIcEENS_9allocatorIcEEEEbEEEE19__generic_constructB8ue170006IRKNS0_18__copy_constructorISE_LNS0_6_TraitE1EEEEEvRSF_OT_EUlRSN_OT0_E_JRNS0_6__baseILSI_1EJidSD_bEEERKSV_EEEDcSN_DpT0_",
            "__ZN28qvac_lib_inference_addon_cpp6logger8JsLogger13asyncCallbackEP10uv_async_s",
            "__ZNSt3__116__variant_detail12__visitation6__base12__dispatcherIJLm2ELm2EEE10__dispatchB8ue170006IOZNS0_6__ctorINS0_8__traitsIJNS_9monostateENS_6vectorIN32qvac_lib_inference_addon_whisper10TranscriptENS_9allocatorISB_EEEENS9_INS_4pairINS_12basic_stringIcNS_11char_traitsIcEENSC_IcEEEENS_7variantIJdxEEEEENSC_ISN_EEEEN28qvac_lib_inference_addon_cpp6OutputISE_E5ErrorENSS_6LogMsgEEEEE19__generic_constructB8ue170006INS0_18__move_constructorISV_LNS0_6_TraitE1EEEEEvRSW_OT_EUlRS12_OT0_E_JRNS0_6__baseILSZ_1EJS8_SE_SP_ST_SU_EEEOS1A_EEEDcS12_DpT0_",
            "__ZNSt3__116__variant_detail12__visitation6__base12__dispatcherIJLm3ELm3EEE10__dispatchB8ue170006IOZNS0_6__ctorINS0_8__traitsIJidNS_12basic_stringIcNS_11char_traitsIcEENS_9allocatorIcEEEEbEEEE19__generic_constructB8ue170006IRKNS0_18__copy_constructorISE_LNS0_6_TraitE1EEEEEvRSF_OT_EUlRSN_OT0_E_JRNS0_6__baseILSI_1EJidSD_bEEERKSV_EEEDcSN_DpT0_",
            "__ZNSt3__116__variant_detail12__visitation6__base12__dispatcherIJLm2ELm2EEE10__dispatchB8ue170006IOZNS0_12__assignmentINS0_8__traitsIJidNS_12basic_stringIcNS_11char_traitsIcEENS_9allocatorIcEEEEbEEEE16__generic_assignB8ue170006IRKNS0_17__copy_assignmentISE_LNS0_6_TraitE1EEEEEvOT_EUlRSM_OT0_E_JRNS0_6__baseILSI_1EJidSD_bEEERKSU_EEEDcSM_DpT0_",
            "__ZZN28qvac_lib_inference_addon_cpp5AddonIN32qvac_lib_inference_addon_whisper22WhisperCppModelWrapperEED1EvENUlP11uv_handle_sE_8__invokeES5_",
            "__ZNSt3__116__variant_detail12__visitation6__base12__dispatcherIJLm2ELm2EEE10__dispatchB8ue170006IOZNS0_6__ctorINS0_8__traitsIJidNS_12basic_stringIcNS_11char_traitsIcEENS_9allocatorIcEEEEbEEEE19__generic_constructB8ue170006IRKNS0_18__copy_constructorISE_LNS0_6_TraitE1EEEEEvRSF_OT_EUlRSN_OT0_E_JRNS0_6__baseILSI_1EJidSD_bEEERKSV_EEEDcSN_DpT0_"
          ]
        }
      }
    ],
    "flags": [
      {
        "attributes": [
          "not_app_extension_safe"
        ]
      }
    ],
    "install_names": [
      {
        "name": "tetherto__transcription-whispercpp@3.bare"
      }
    ],
    "target_info": [
      {
        "min_deployment": "14",
        "target": "arm64-ios-simulator"
      }
    ]
  },
  "tapi_tbd_version": 5
}
