{
  "main_library": {
    "compatibility_versions": [
      {
        "version": "2"
      }
    ],
    "current_versions": [
      {
        "version": "2"
      }
    ],
    "exported_symbols": [
      {
        "data": {
          "global": [
            "__ZTSN6google8protobuf8internal19ImplicitWeakMessageE",
            "__ZTVN6google8protobuf2io19LimitingInputStreamE",
            "__ZTIN4ggml3cpu13tensor_traitsE",
            "__ZN4absl12lts_2024072219str_format_internal31FormatConversionCharSetInternal1dE",
            "__ZNSt3__114numeric_limitsIN4absl12lts_202407226int128EE17has_signaling_NaNE",
            "__ZTSN6google8protobuf2io25CopyingInputStreamAdaptorE",
            "__ZNSt3__114numeric_limitsIN4absl12lts_202407226int128EE5trapsE",
            "__ZTSN13sentencepiece14ModelInterfaceE",
            "__ZN13sentencepiece11TrainerSpec5Impl_56_i_give_permission_to_break_this_code_default_eos_piece_E",
            "__ZTSN4ggml3cpu17extra_buffer_typeE",
            "__ZN6google8protobuf8internal14WireFormatLite21kWireTypeForFieldTypeE",
            "__ZTIN13sentencepiece10normalizer10NormalizerE",
            "__ZTVN13sentencepiece10normalizer10NormalizerE",
            "__ZTIN4absl12lts_2024072214flags_internal8FlagImplE",
            "__ZTIN6google8protobuf11MessageLiteE",
            "__ZNSt3__114numeric_limitsIN4absl12lts_202407226int128EE10is_integerE",
            "__ZNSt3__114numeric_limitsIN4absl12lts_202407226int128EE6digitsE",
            "__ZN4absl12lts_2024072219str_format_internal13ConvTagHolder5valueE",
            "__ZTVN6google8protobuf8internal12FieldSkipperE",
            "__ZTIN6google8protobuf8internal12FieldSkipperE",
            "__ZN4absl12lts_2024072224synchronization_internal10WaiterBase12kIdlePeriodsE",
            "__ZN6google8protobuf8internal28init_protobuf_defaults_stateE",
            "__ZTVN13sentencepiece9character5ModelE",
            "__ZTSN6google8protobuf2io18StringOutputStreamE",
            "__ZNSt3__114numeric_limitsIN4absl12lts_202407226int128EE14max_exponent10E",
            "__ZTSN6google8protobuf2io17ArrayOutputStreamE",
            "__ZTSN6google8protobuf2io19OstreamOutputStreamE",
            "__ZTIN6google8protobuf2io24ConcatenatingInputStreamE",
            "__ZN6google8protobuf8internal14WireFormatLite23kMessageSetItemStartTagE",
            "__ZN4absl12lts_2024072219str_format_internal28FormatConversionCharInternal1AE",
            "__ZTSN6google8protobuf2io19LimitingInputStreamE",
            "__ZN6google8protobuf8internal14WireFormatLite23kMessageSetItemTagsSizeE",
            "__ZTIN6google8protobuf2io15FileInputStream22CopyingFileInputStreamE",
            "__ZN6google8protobuf2io17CodedOutputStream36default_serialization_deterministic_E",
            "__ZTSN13sentencepiece3bpe5ModelE",
            "__ZNSt3__114numeric_limitsIN4absl12lts_202407226int128EE14is_specializedE",
            "__ZTSN4absl12lts_2024072214flags_internal18FlagStateInterfaceE",
            "__ZTSN6google8protobuf2io15FileInputStreamE",
            "__ZN4absl12lts_2024072218container_internal11kEmptyGroupE",
            "__ZNSt3__114numeric_limitsIN4absl12lts_202407226int128EE13has_quiet_NaNE",
            "__ZN4absl12lts_2024072213base_internal8SpinLock27kSpinLockDisabledSchedulingE",
            "__ZN4absl12lts_2024072219str_format_internal28FormatConversionCharInternal1gE",
            "__ZTVN6google8protobuf8internal19ImplicitWeakMessageE",
            "__ZNSt3__114numeric_limitsIN4absl12lts_202407227uint128EE9is_moduloE",
            "__ZNSt3__114numeric_limitsIN4absl12lts_202407227uint128EE17has_signaling_NaNE",
            "__ZTSN4absl12lts_2024072214flags_internal8FlagImplE",
            "__ZNSt3__114numeric_limitsIN4absl12lts_202407226int128EE9is_iec559E",
            "__ZTSN6google8protobuf2io26CopyingOutputStreamAdaptorE",
            "__ZTSN13sentencepiece7unigram5ModelE",
            "__ZTVN4absl12lts_2024072213time_internal4cctz12TimeZoneLibCE",
            "__ZN13sentencepiece43_ModelProto_SentencePiece_default_instance_E",
            "__ZNSt3__114numeric_limitsIN4absl12lts_202407227uint128EE11round_styleE",
            "__ZTVN6google8protobuf2io19OstreamOutputStreamE",
            "__ZNSt3__114numeric_limitsIN4absl12lts_202407226int128EE11round_styleE",
            "__ZTVN13sentencepiece14ModelInterfaceE",
            "__ZTIN6google8protobuf2io16FileOutputStream23CopyingFileOutputStreamE",
            "__ZTVN6google8protobuf8internal12ExtensionSet20LazyMessageExtensionE",
            "__ZTVN6google8protobuf2io26CopyingOutputStreamAdaptorE",
            "__ZTIN6google8protobuf2io19OstreamOutputStreamE",
            "__ZNSt3__114numeric_limitsIN4absl12lts_202407226int128EE14min_exponent10E",
            "__ZN6google8protobuf20stringpiece_internal11StringPiece4nposE",
            "__ZTVN13sentencepiece17SentencePieceTextE",
            "__ZN4absl12lts_2024072219str_format_internal31FormatConversionCharSetInternal1aE",
            "__ZNSt3__114numeric_limitsIN4absl12lts_202407227uint128EE5radixE",
            "__ZN6google8protobuf8internal14WireFormatLite20kMessageSetTypeIdTagE",
            "__ZNSt3__114numeric_limitsIN4absl12lts_202407227uint128EE13has_quiet_NaNE",
            "__ZN4absl12lts_2024072219str_format_internal31FormatConversionCharSetInternal1xE",
            "__ZN6google8protobuf8internal38implicit_weak_message_default_instanceE",
            "__ZNSt3__114numeric_limitsIN4absl12lts_202407226int128EE10is_boundedE",
            "__ZN4absl12lts_2024072219str_format_internal28FormatConversionCharInternal1XE",
            "__ZTIN6google8protobuf2io25CopyingInputStreamAdaptorE",
            "__ZN4absl12lts_2024072219str_format_internal28FormatConversionCharInternal5kNoneE",
            "__ZN4absl12lts_2024072224synchronization_internal13PthreadWaiter5kNameE",
            "__ZN4absl12lts_2024072214ascii_internal8kToLowerE",
            "__ZN4absl12lts_2024072216raw_log_internal21internal_log_functionE",
            "__ZTIN6google8protobuf2io26CopyingOutputStreamAdaptorE",
            "__ZNSt3__114numeric_limitsIN4absl12lts_202407227uint128EE14min_exponent10E",
            "__ZN4absl12lts_2024072219str_format_internal28FormatConversionCharInternal1dE",
            "__ZN4absl12lts_2024072216numbers_internal8kHexCharE",
            "__ZTVN4absl12lts_2024072213time_internal4cctz12TimeZoneInfoE",
            "__ZNSt3__114numeric_limitsIN4absl12lts_202407227uint128EE9is_signedE",
            "__ZN6google8protobuf8internal26fixed_address_empty_stringE",
            "__ZTVN6google8protobuf2io16FileOutputStreamE",
            "__ZTSN6google8protobuf14FatalExceptionE",
            "__ZTIN13sentencepiece14ModelInterfaceE",
            "__ZN4absl12lts_2024072219str_format_internal31FormatConversionCharSetInternal5kStarE",
            "_ggml_metallib_start",
            "__ZTIN6google8protobuf2io15FileInputStreamE",
            "__ZN4absl12lts_2024072219str_format_internal28FormatConversionCharInternal1xE",
            "__ZTVN4ggml3cpu13tensor_traitsE",
            "__ZTVN6google8protobuf2io19OstreamOutputStream26CopyingOstreamOutputStreamE",
            "__ZTVN13sentencepiece7unigram5ModelE",
            "__ZN4absl12lts_2024072219str_format_internal31FormatConversionCharSetInternal1AE",
            "__ZTSN13sentencepiece14NormalizerSpecE",
            "__ZNSt3__114numeric_limitsIN4absl12lts_202407226int128EE12max_digits10E",
            "__ZTVN13sentencepiece10ModelProtoE",
            "__ZN4absl12lts_2024072219str_format_internal31FormatConversionCharSetInternal1oE",
            "__ZN13sentencepiece38_SelfTestData_Sample_default_instance_E",
            "__ZTSN6google8protobuf2io15FileInputStream22CopyingFileInputStreamE",
            "__ZTIN13sentencepiece12SelfTestDataE",
            "__ZN4absl12lts_2024072219str_format_internal28FormatConversionCharInternal1oE",
            "__ZTSN13sentencepiece22SentencePieceProcessorE",
            "__ZN4absl12lts_2024072219str_format_internal31FormatConversionCharSetInternal8kNumericE",
            "__ZN13sentencepiece11TrainerSpec5Impl_58_i_give_permission_to_break_this_code_default_unk_surface_E",
            "__ZTSN6google8protobuf2io24ConcatenatingInputStreamE",
            "__ZN4absl12lts_2024072219str_format_internal28FormatConversionCharInternal1FE",
            "__ZTVN13sentencepiece31SentencePieceText_SentencePieceE",
            "__ZN4absl12lts_2024072219str_format_internal31FormatConversionCharSetInternal1gE",
            "__ZTIN13sentencepiece3bpe5ModelE",
            "__ZN4absl12lts_2024072219str_format_internal28FormatConversionCharInternal1nE",
            "__ZN4absl12lts_2024072219str_format_internal31FormatConversionCharSetInternal1sE",
            "__ZTVN6google8protobuf2io24ConcatenatingInputStreamE",
            "__ZTIN6google8protobuf8internal12ExtensionSet20LazyMessageExtensionE",
            "__ZTVN6google8protobuf11MessageLiteE",
            "__ZTSN13sentencepiece7unigram7LatticeE",
            "__ZTVN4absl12lts_2024072215CommandLineFlagE",
            "__ZTSN6google8protobuf2io16ArrayInputStreamE",
            "__ZN4absl12lts_2024072219str_format_internal31FormatConversionCharSetInternal1vE",
            "__ZN13sentencepiece29_ModelProto_default_instance_E",
            "__ZTSN13sentencepiece31SentencePieceText_SentencePieceE",
            "__ZTSN13sentencepiece10ModelProtoE",
            "__ZNSt3__114numeric_limitsIN4absl12lts_202407226int128EE9is_moduloE",
            "__ZNSt3__114numeric_limitsIN4absl12lts_202407227uint128EE15has_denorm_lossE",
            "__ZTVN13sentencepiece24ModelProto_SentencePieceE",
            "__ZTIN35qvac_lib_inference_addon_mlc_marian16TranslationModelE",
            "__ZNSt3__114numeric_limitsIN4absl12lts_202407226int128EE12min_exponentE",
            "__ZTIN13sentencepiece4word5ModelE",
            "__ZTSN6google8protobuf11MessageLiteE",
            "__ZN6google8protobuf8internal15ThreadSafeArena23lifecycle_id_generator_E",
            "__ZTIN13sentencepiece10ModelProtoE",
            "__ZNSt3__114numeric_limitsIN4absl12lts_202407227uint128EE9is_iec559E",
            "__ZTIN13sentencepiece19SelfTestData_SampleE",
            "__ZN4absl12lts_2024072219str_format_internal28FormatConversionCharInternal1GE",
            "__ZTSN6google8protobuf7ClosureE",
            "__ZN4absl12lts_2024072219str_format_internal28FormatConversionCharInternal1fE",
            "__ZTSN4ggml3cpu13tensor_traitsE",
            "__ZN13sentencepiece50_SentencePieceText_SentencePiece_default_instance_E",
            "__ZN4absl12lts_2024072214ascii_internal13kPropertyBitsE",
            "__ZN4absl12lts_2024072219str_format_internal31FormatConversionCharSetInternal1nE",
            "__ZTVN6google8protobuf2io15FileInputStream22CopyingFileInputStreamE",
            "__ZN4absl12lts_2024072224synchronization_internal13KernelTimeout9kMaxNanosE",
            "__ZTSN13sentencepiece11TrainerSpecE",
            "__ZTVN6google8protobuf2io18CopyingInputStreamE",
            "__ZN4absl12lts_2024072219str_format_internal31FormatConversionCharSetInternal1XE",
            "__ZTIN13sentencepiece31SentencePieceText_SentencePieceE",
            "__ZTVN4absl12lts_2024072214flags_internal18FlagStateInterfaceE",
            "__ZNSt3__114numeric_limitsIN4absl12lts_202407227uint128EE8is_exactE",
            "__ZTVN13sentencepiece19SelfTestData_SampleE",
            "__ZTVN13sentencepiece7unigram7LatticeE",
            "__ZN13sentencepiece33_NormalizerSpec_default_instance_E",
            "__ZNSt3__114numeric_limitsIN4absl12lts_202407226int128EE15tinyness_beforeE",
            "__ZNSt3__114numeric_limitsIN4absl12lts_202407226int128EE12max_exponentE",
            "__ZTIN13sentencepiece24ModelProto_SentencePieceE",
            "__ZN4absl12lts_2024072219str_format_internal28FormatConversionCharInternal1sE",
            "__ZTIN6google8protobuf8internal19ImplicitWeakMessageE",
            "__ZN4absl12lts_2024072219str_format_internal31FormatConversionCharSetInternal9kFloatingE",
            "__ZNSt3__114numeric_limitsIN4absl12lts_202407227uint128EE15tinyness_beforeE",
            "__ZTIN6google8protobuf2io17ArrayOutputStreamE",
            "__ZN4absl12lts_2024072219str_format_internal28FormatConversionCharInternal1iE",
            "__ZTSN13sentencepiece31ImmutableNBestSentencePieceTextE",
            "__ZNSt3__114numeric_limitsIN4absl12lts_202407227uint128EE10is_integerE",
            "__ZTIN6google8protobuf2io18IstreamInputStreamE",
            "__ZTSN13sentencepiece24ModelProto_SentencePieceE",
            "__ZN4absl12lts_2024072216numbers_internal9kHexTableE",
            "__ZN4absl12lts_2024072219str_format_internal28FormatConversionCharInternal1cE",
            "__ZTSN6google8protobuf8internal12FieldSkipperE",
            "_FLAGS_minloglevel",
            "__ZTIN6google8protobuf14FatalExceptionE",
            "__ZTIN13sentencepiece26ImmutableSentencePieceTextE",
            "__ZNSt3__114numeric_limitsIN4absl12lts_202407226int128EE15has_denorm_lossE",
            "__ZTVN6google8protobuf2io16ArrayInputStreamE",
            "__ZN4absl12lts_2024072216strings_internal9kTenToNthE",
            "__ZN4absl12lts_2024072211string_view8kMaxSizeE",
            "__ZTIN13sentencepiece22SentencePieceProcessorE",
            "__ZTSN6google8protobuf2io16FileOutputStream23CopyingFileOutputStreamE",
            "__ZTIN6google8protobuf2io19LimitingInputStreamE",
            "__ZNSt3__114numeric_limitsIN4absl12lts_202407227uint128EE12max_exponentE",
            "__ZN4absl12lts_2024072219str_format_internal31FormatConversionCharSetInternal1eE",
            "__ZTVN13sentencepiece22SentencePieceProcessorE",
            "__ZNSt3__114numeric_limitsIN4absl12lts_202407227uint128EE14max_exponent10E",
            "__ZTSN13sentencepiece17SentencePieceTextE",
            "__ZTIN4absl12lts_2024072213time_internal4cctz12TimeZoneInfoE",
            "__ZTVN35qvac_lib_inference_addon_mlc_marian16TranslationModelE",
            "__ZNSt3__114numeric_limitsIN4absl12lts_202407226int128EE9is_signedE",
            "__ZN4absl12lts_2024072213base_internal8SpinLock20kSpinLockCooperativeE",
            "__ZN4absl12lts_2024072213base_internal8SpinLock13kWaitTimeMaskE",
            "__ZNSt3__114numeric_limitsIN4absl12lts_202407227uint128EE12has_infinityE",
            "__ZNSt3__114numeric_limitsIN4absl12lts_202407226int128EE5radixE",
            "__ZN6google8protobuf8internal14WireFormatLite21kMessageSetItemEndTagE",
            "__ZTSN4absl12lts_2024072213time_internal4cctz12TimeZoneLibCE",
            "__ZN4absl12lts_2024072219str_format_internal28FormatConversionCharInternal1vE",
            "_ggml_table_gelu_f16",
            "__ZTVN13sentencepiece14NormalizerSpecE",
            "__ZTVN6google8protobuf2io18StringOutputStreamE",
            "__ZNSt3__114numeric_limitsIN4absl12lts_202407227uint128EE14is_specializedE",
            "__ZN4absl12lts_2024072219str_format_internal28FormatConversionCharInternal1EE",
            "__ZNSt3__114numeric_limitsIN4absl12lts_202407227uint128EE6digitsE",
            "__ZTVN13sentencepiece12SelfTestDataE",
            "__ZTSN6google8protobuf8internal12ExtensionSet20LazyMessageExtensionE",
            "__ZN13sentencepiece11TrainerSpec5Impl_56_i_give_permission_to_break_this_code_default_unk_piece_E",
            "__ZN4absl12lts_2024072214flags_internal17kStrippedFlagHelpE",
            "__ZTSN4absl12lts_2024072213time_internal4cctz12TimeZoneInfoE",
            "__ZN4absl12lts_2024072219str_format_internal31FormatConversionCharSetInternal1GE",
            "__ZTIN6google8protobuf2io20ZeroCopyOutputStreamE",
            "__ZNSt3__114numeric_limitsIN4absl12lts_202407227uint128EE10has_denormE",
            "__ZN13sentencepiece41_NBestSentencePieceText_default_instance_E",
            "__ZN13sentencepiece5error12gTestCounterE",
            "__ZTVN6google8protobuf2io17ArrayOutputStreamE",
            "__ZN6google8protobuf8internal12ExtensionSet20kMaximumFlatCapacityE",
            "__ZN4absl12lts_2024072219str_format_internal31FormatConversionCharSetInternal1fE",
            "__ZTIN13sentencepiece31ImmutableNBestSentencePieceTextE",
            "__ZTVN6google8protobuf2io15FileInputStreamE",
            "__ZTSN6google8protobuf8internal29CodedOutputStreamFieldSkipperE",
            "__ZNSt3__114numeric_limitsIN4absl12lts_202407226int128EE12has_infinityE",
            "__ZN13sentencepiece31_SelfTestData_default_instance_E",
            "__ZN4absl12lts_2024072214ascii_internal8kToUpperE",
            "__ZN13sentencepiece30_TrainerSpec_default_instance_E",
            "__ZTVN6google8protobuf8internal16FunctionClosure0E",
            "__ZTSN6google8protobuf2io18IstreamInputStreamE",
            "__ZTSN13sentencepiece12SelfTestDataE",
            "__ZTVN13sentencepiece4word5ModelE",
            "_FLAGS_nominloglevel",
            "__ZTSN6google8protobuf2io20ZeroCopyOutputStreamE",
            "__ZTIN6google8protobuf2io19OstreamOutputStream26CopyingOstreamOutputStreamE",
            "__ZN4absl12lts_2024072213base_internal8SpinLock16kSpinLockSleeperE",
            "__ZTVN6google8protobuf7ClosureE",
            "__ZTVN6google8protobuf2io18IstreamInputStream25CopyingIstreamInputStreamE",
            "__ZTVN6google8protobuf2io25CopyingInputStreamAdaptorE",
            "__ZTIN4absl12lts_2024072213time_internal4cctz12TimeZoneLibCE",
            "__ZTSN13sentencepiece4word5ModelE",
            "__ZN4absl12lts_2024072219str_format_internal31FormatConversionCharSetInternal1pE",
            "__ZTIN6google8protobuf2io16FileOutputStreamE",
            "__ZN6google8protobuf2io16CodedInputStream24default_recursion_limit_E",
            "__ZTSN4absl12lts_2024072213time_internal4cctz14ZoneInfoSourceE",
            "__ZTVN13sentencepiece22NBestSentencePieceTextE",
            "__ZTVN4ggml3cpu17extra_buffer_typeE",
            "__ZNSt3__114numeric_limitsIN4absl12lts_202407227uint128EE12max_digits10E",
            "__ZN4absl12lts_2024072219str_format_internal31FormatConversionCharSetInternal8kPointerE",
            "__ZN13sentencepiece36_SentencePieceText_default_instance_E",
            "__ZNSt3__114numeric_limitsIN4absl12lts_202407227uint128EE10is_boundedE",
            "__ZTIN4absl12lts_2024072213time_internal4cctz14ZoneInfoSourceE",
            "__ZTIN13sentencepiece17SentencePieceTextE",
            "__ZTIN6google8protobuf2io18CopyingInputStreamE",
            "__ZTSN6google8protobuf2io18CopyingInputStreamE",
            "__ZN4absl12lts_2024072219str_format_internal31FormatConversionCharSetInternal1EE",
            "__ZTSN35qvac_lib_inference_addon_mlc_marian16TranslationModelE",
            "__ZTVN13sentencepiece11TrainerSpecE",
            "__ZN4absl12lts_2024072219str_format_internal28FormatConversionCharInternal1pE",
            "__ZTIN6google8protobuf8internal29CodedOutputStreamFieldSkipperE",
            "__ZTIN13sentencepiece7unigram5ModelE",
            "__ZN4absl12lts_2024072219str_format_internal31FormatConversionCharSetInternal1uE",
            "__ZTSN6google8protobuf8internal16FunctionClosure0E",
            "__ZTSN13sentencepiece19SelfTestData_SampleE",
            "__ZTIN6google8protobuf7ClosureE",
            "__ZTVN6google8protobuf8internal29CodedOutputStreamFieldSkipperE",
            "__ZTVN6google8protobuf2io18IstreamInputStreamE",
            "__ZTIN13sentencepiece7unigram7LatticeE",
            "__ZTSN4absl12lts_2024072215CommandLineFlagE",
            "__ZTSN6google8protobuf2io16FileOutputStreamE",
            "__ZTVN4absl12lts_2024072213time_internal4cctz14ZoneInfoSourceE",
            "__ZTSN13sentencepiece9character5ModelE",
            "__ZN4absl12lts_2024072219str_format_internal28FormatConversionCharInternal1eE",
            "__ZN13sentencepiece11TrainerSpec5Impl_56_i_give_permission_to_break_this_code_default_bos_piece_E",
            "__ZN4absl12lts_2024072219str_format_internal28FormatConversionCharInternal1aE",
            "__ZNSt3__114numeric_limitsIN4absl12lts_202407226int128EE8is_exactE",
            "__ZTVN13sentencepiece3bpe5ModelE",
            "_ggml_metallib_end",
            "__ZN4absl12lts_2024072219str_format_internal28FormatConversionCharInternal1uE",
            "__ZN4absl12lts_2024072218container_internal13GroupSse2Impl6kWidthE",
            "__ZTIN13sentencepiece22NBestSentencePieceTextE",
            "__ZNSt3__114numeric_limitsIN4absl12lts_202407227uint128EE8digits10E",
            "__ZN4absl12lts_2024072219str_format_internal31FormatConversionCharSetInternal1iE",
            "__ZTIN13sentencepiece11TrainerSpecE",
            "_ggml_table_f32_f16",
            "__ZNSt3__114numeric_limitsIN4absl12lts_202407226int128EE8digits10E",
            "__ZTVN13sentencepiece31ImmutableNBestSentencePieceTextE",
            "__ZTVN6google8protobuf2io20ZeroCopyOutputStreamE",
            "__ZN6google8protobuf8internal14WireFormatLite21kMessageSetMessageTagE",
            "__ZTVN6google8protobuf14FatalExceptionE",
            "__ZTIN13sentencepiece9character5ModelE",
            "__ZN4absl12lts_2024072218container_internal11kSooControlE",
            "__ZTIN6google8protobuf2io18StringOutputStreamE",
            "__ZTIN6google8protobuf2io18IstreamInputStream25CopyingIstreamInputStreamE",
            "__ZTSN13sentencepiece26ImmutableSentencePieceTextE",
            "__ZNSt3__114numeric_limitsIN4absl12lts_202407227uint128EE5trapsE",
            "__ZN4absl12lts_2024072219str_format_internal31FormatConversionCharSetInternal9kIntegralE",
            "__ZTIN4ggml3cpu17extra_buffer_typeE",
            "__ZTSN6google8protobuf2io19OstreamOutputStream26CopyingOstreamOutputStreamE",
            "__ZN4absl12lts_2024072213hash_internal15MixingHashState5kSeedE",
            "__ZN4absl12lts_2024072219str_format_internal31FormatConversionCharSetInternal1cE",
            "__ZN13sentencepiece11TrainerSpec5Impl_56_i_give_permission_to_break_this_code_default_pad_piece_E",
            "__ZTIN6google8protobuf2io16ArrayInputStreamE",
            "__ZN4absl12lts_2024072213base_internal8SpinLock13kSpinLockHeldE",
            "__ZTVN4absl12lts_2024072214flags_internal8FlagImplE",
            "__ZTIN4absl12lts_2024072215CommandLineFlagE",
            "__ZN6google8protobuf11kuint128maxE",
            "__ZN4absl12lts_2024072216strings_internal10kFiveToNthE",
            "__ZN4absl12lts_2024072219str_format_internal31FormatConversionCharSetInternal1FE",
            "__ZTSN13sentencepiece10normalizer10NormalizerE",
            "__ZTSN13sentencepiece22NBestSentencePieceTextE",
            "_ggml_table_gelu_quick_f16",
            "__ZTVN4absl12lts_2024072213time_internal4cctz10TimeZoneIfE",
            "__ZN4absl12lts_2024072211string_view4nposE",
            "_ggml_critical_section_mutex",
            "__ZN4absl12lts_202407229Condition5kTrueE",
            "__ZNSt3__114numeric_limitsIN4absl12lts_202407227uint128EE12min_exponentE",
            "__ZN4absl12lts_2024072224synchronization_internal13KernelTimeout10kNoTimeoutE",
            "__ZTVN6google8protobuf2io16FileOutputStream23CopyingFileOutputStreamE",
            "__ZTVN13sentencepiece26ImmutableSentencePieceTextE",
            "__ZTSN6google8protobuf2io18IstreamInputStream25CopyingIstreamInputStreamE",
            "__ZTIN13sentencepiece14NormalizerSpecE",
            "__ZTSN4absl12lts_2024072213time_internal4cctz10TimeZoneIfE",
            "__ZNSt3__114numeric_limitsIN4absl12lts_202407226int128EE10has_denormE",
            "__ZTIN6google8protobuf8internal16FunctionClosure0E",
            "__ZTIN4absl12lts_2024072214flags_internal18FlagStateInterfaceE",
            "__ZN6google8protobuf8internal14WireFormatLite22kFieldTypeToCppTypeMapE",
            "__ZTIN4absl12lts_2024072213time_internal4cctz10TimeZoneIfE"
          ],
          "objc_class": [
            "ggml_metal_heap_ptr"
          ],
          "thread_local": [
            "__ZN4absl12lts_2024072213base_internal19thread_identity_ptrE"
          ],
          "weak": [
            "__ZN4absl12lts_2024072213base_internal11FastTypeTagIfE9dummy_varE",
            "__ZTSNSt3__118basic_stringstreamIcNS_11char_traitsIcEENS_9allocatorIcEEEE",
            "__ZTSN28qvac_lib_inference_addon_cpp2js5ErrorE",
            "__ZZN4absl12lts_2024072213base_internal12CallOnceImplIMNS0_14flags_internal8FlagImplEFvvEJPS4_EEEvPNSt3__16atomicIjEENS1_14SchedulingModeEOT_DpOT0_E5trans",
            "__ZTSN6google8protobuf2io19ZeroCopyInputStreamE",
            "__ZTSN6google8protobuf8internal16InternalMetadata13ContainerBaseE",
            "__ZTSNSt3__110__function6__funcIPFbN4absl12lts_2024072211string_viewEENS_9allocatorIS6_EES5_EE",
            "__ZTINSt3__13mapIiN6google8protobuf8internal12ExtensionSet9ExtensionENS_4lessIiEENS_9allocatorINS_4pairIKiS5_EEEEEE",
            "__ZTINSt3__110__function6__baseIFbN4absl12lts_2024072211string_viewEEEE",
            "__ZTIN6google8protobuf13RepeatedFieldIyEE",
            "__ZTSN6google8protobuf13RepeatedFieldIbEE",
            "__ZTINSt3__118basic_stringstreamIcNS_11char_traitsIcEENS_9allocatorIcEEEE",
            "__ZTIN4ggml3cpu6repack13tensor_traitsI10block_q4_0Lx8ELx8EL9ggml_type8EEE",
            "__ZTIN13sentencepiece10filesystem12WritableFileE",
            "__ZTSNSt3__13mapIiN6google8protobuf8internal12ExtensionSet9ExtensionENS_4lessIiEENS_9allocatorINS_4pairIKiS5_EEEEEE",
            "__ZTINSt3__110__function6__funcIPFNS_12basic_stringIcNS_11char_traitsIcEENS_9allocatorIcEEEEvENS5_IS9_EES8_EE",
            "__ZTSNSt3__114basic_ofstreamIcNS_11char_traitsIcEEEE",
            "__ZN4absl12lts_2024072213base_internal11FastTypeTagINSt3__16vectorINS3_12basic_stringIcNS3_11char_traitsIcEENS3_9allocatorIcEEEENS8_ISA_EEEEE9dummy_varE",
            "__ZTIN4ggml3cpu6repack18tensor_traits_baseE",
            "__ZN4absl12lts_2024072213base_internal11FastTypeTagIxE9dummy_varE",
            "__ZTSN13sentencepiece10filesystem17PosixReadableFileE",
            "__ZTIN6google8protobuf16RepeatedPtrFieldINSt3__112basic_stringIcNS2_11char_traitsIcEENS2_9allocatorIcEEEEEE",
            "__ZTSN6google8protobuf8internal12ExtensionSet8KeyValueE",
            "__ZTSNSt3__114basic_ifstreamIcNS_11char_traitsIcEEEE",
            "__ZZN4absl12lts_2024072218container_internal12raw_hash_setINS1_17FlatHashMapPolicyINS0_11string_viewENSt3__14pairIS4_S4_EEEENS1_10StringHashENS1_8StringEqENS5_9allocatorINS6_IKS4_S7_EEEEE18GetPolicyFunctionsEvE5value",
            "__ZTSN4ggml3cpu6repack13tensor_traitsI10block_q4_0Lx4ELx4EL9ggml_type8EEE",
            "__ZTINSt3__113basic_filebufIcNS_11char_traitsIcEEEE",
            "__ZTINSt3__110__function6__baseIFNS_12basic_stringIcNS_11char_traitsIcEENS_9allocatorIcEEEEvEEE",
            "__ZTINSt3__119basic_istringstreamIcNS_11char_traitsIcEENS_9allocatorIcEEEE",
            "__ZN4absl12lts_2024072213base_internal11FastTypeTagIlE9dummy_varE",
            "__ZTIN5Darts15DoubleArrayImplIvvivEE",
            "__ZTINSt3__110__function6__funcIPFNS_12basic_stringIcNS_11char_traitsIcEENS_9allocatorIcEEEEN4absl12lts_2024072211string_viewEENS5_ISC_EESB_EE",
            "__ZTIFNSt3__112basic_stringIcNS_11char_traitsIcEENS_9allocatorIcEEEEvE",
            "__ZTIN6google8protobuf8internal16InternalMetadata13ContainerBaseE",
            "__ZTINSt3__120__shared_ptr_emplaceIN13sentencepiece22NBestSentencePieceTextENS_9allocatorIS2_EEEE",
            "__ZTIN6google8protobuf13RepeatedFieldIbEE",
            "__ZTSN6google8protobuf13RepeatedFieldIiEE",
            "__ZTSNSt3__112basic_stringIcNS_11char_traitsIcEENS_9allocatorIcEEEE",
            "__ZTSFNSt3__112basic_stringIcNS_11char_traitsIcEENS_9allocatorIcEEEEN4absl12lts_2024072211string_viewEE",
            "__ZTIN4ggml3cpu6repack13tensor_traitsI10block_q4_KLx8ELx8EL9ggml_type15EEE",
            "__ZTSNSt3__110__function6__baseIFbN4absl12lts_2024072211string_viewEEEE",
            "__ZTSN6google8protobuf24ZeroCopyCodedInputStreamE",
            "__ZTSPFNSt3__112basic_stringIcNS_11char_traitsIcEENS_9allocatorIcEEEEN4absl12lts_2024072211string_viewEE",
            "__ZTIN6google8protobuf13RepeatedFieldIfEE",
            "__ZTIN4ggml3cpu6repack17extra_buffer_typeE",
            "__ZTINSt3__117bad_function_callE",
            "__ZTSN4ggml3cpu6repack13tensor_traitsI10block_q4_0Lx8ELx8EL9ggml_type8EEE",
            "__ZN4absl12lts_2024072213time_internal14cctz_extension24zone_info_source_factoryE",
            "__ZTSNSt3__110__function6__funcIPFNS_12basic_stringIcNS_11char_traitsIcEENS_9allocatorIcEEEEvENS5_IS9_EES8_EE",
            "__ZTSNSt3__110__function6__funcIPFNS_12basic_stringIcNS_11char_traitsIcEENS_9allocatorIcEEEEN4absl12lts_2024072211string_viewEENS5_ISC_EESB_EE",
            "__ZTIN4ggml3cpu6repack13tensor_traitsI12block_iq4_nlLx4ELx4EL9ggml_type8EEE",
            "__ZTIN6google8protobuf16RepeatedPtrFieldINS0_11MessageLiteEEE",
            "__ZTINSt3__110__function6__baseIFvN4absl12lts_2024072211string_viewEPNS_6vectorINS_4pairIS4_iEENS_9allocatorIS7_EEEEEEE",
            "__ZTSN5Darts15DoubleArrayImplIvvivEE",
            "__ZTSN4ggml3cpu6repack13tensor_traitsI12block_iq4_nlLx4ELx4EL9ggml_type8EEE",
            "__ZN4absl12lts_2024072213base_internal11FastTypeTagINSt3__112basic_stringIcNS3_11char_traitsIcEENS3_9allocatorIcEEEEE9dummy_varE",
            "__ZTINSt3__114basic_ofstreamIcNS_11char_traitsIcEEEE",
            "__ZTIN6google8protobuf24ZeroCopyCodedInputStreamE",
            "__ZTSN6google8protobuf16RepeatedPtrFieldINSt3__112basic_stringIcNS2_11char_traitsIcEENS2_9allocatorIcEEEEEE",
            "__ZTINSt3__110__function6__baseIFNS_12basic_stringIcNS_11char_traitsIcEENS_9allocatorIcEEEEN4absl12lts_2024072211string_viewEEEE",
            "__ZTSPFNSt3__112basic_stringIcNS_11char_traitsIcEENS_9allocatorIcEEEEvE",
            "__ZN4absl12lts_2024072213base_internal11FastTypeTagIdE9dummy_varE",
            "__ZTSN6google8protobuf2io19CopyingOutputStreamE",
            "__ZTSN4ggml3cpu6repack18tensor_traits_baseE",
            "__ZTSN13sentencepiece10filesystem12WritableFileE",
            "__ZTINSt3__110__function6__baseIFP11ggml_cgraphvEEE",
            "__ZTIN28qvac_lib_inference_addon_cpp2js5ErrorE",
            "__ZN4absl12lts_2024072213base_internal11FastTypeTagItE9dummy_varE",
            "__ZTIN6google8protobuf2io19ZeroCopyInputStreamE",
            "__ZGVN28qvac_lib_inference_addon_cpp11JsInterfaceINS_5AddonIN35qvac_lib_inference_addon_mlc_marian16TranslationModelEEEE10instances_E",
            "__ZTSN13sentencepiece5model8FreeListINS_7unigram7Lattice4NodeEEE",
            "__ZTINSt3__110__function6__funcIPFbN4absl12lts_2024072211string_viewEENS_9allocatorIS6_EES5_EE",
            "__ZTIN6google8protobuf13RepeatedFieldIxEE",
            "__ZTIN4ggml3cpu6repack13tensor_traitsI10block_q4_0Lx4ELx4EL9ggml_type8EEE",
            "__ZTSPFbN4absl12lts_2024072211string_viewEE",
            "__ZTIFNSt3__112basic_stringIcNS_11char_traitsIcEENS_9allocatorIcEEEEN4absl12lts_2024072211string_viewEE",
            "__ZTIPFbN4absl12lts_2024072211string_viewEE",
            "__ZTIN13sentencepiece10filesystem17PosixReadableFileE",
            "__ZTSN4absl12lts_2024072214flags_internal9FlagStateE",
            "__ZTINSt3__115basic_stringbufIcNS_11char_traitsIcEENS_9allocatorIcEEEE",
            "__ZTSN6google8protobuf16RepeatedPtrFieldINS0_11MessageLiteEEE",
            "__ZTIN6google8protobuf2io19CopyingOutputStreamE",
            "__ZTIN13sentencepiece5model8FreeListINS_7unigram7Lattice4NodeEEE",
            "__ZTSNSt3__120__shared_ptr_emplaceIN13sentencepiece22NBestSentencePieceTextENS_9allocatorIS2_EEEE",
            "__ZTSN4ggml3cpu6repack13tensor_traitsI10block_q4_KLx8ELx8EL9ggml_type15EEE",
            "__ZTSN13sentencepiece10filesystem17PosixWritableFileE",
            "__ZTSNSt3__110__function6__baseIFP11ggml_cgraphvEEE",
            "__ZTSNSt3__119basic_ostringstreamIcNS_11char_traitsIcEENS_9allocatorIcEEEE",
            "__ZTSN6google8protobuf13RepeatedFieldIyEE",
            "__ZTSNSt3__115basic_stringbufIcNS_11char_traitsIcEENS_9allocatorIcEEEE",
            "__ZTSN6google8protobuf13RepeatedFieldIfEE",
            "__ZTINSt3__112basic_stringIcNS_11char_traitsIcEENS_9allocatorIcEEEE",
            "__ZTIN13sentencepiece10filesystem12ReadableFileE",
            "__ZTINSt3__114basic_ifstreamIcNS_11char_traitsIcEEEE",
            "__ZGVZN6google8protobuf8internal12ShutdownData3getEvE4data",
            "__ZTIFbN4absl12lts_2024072211string_viewEE",
            "__ZTSN13sentencepiece10filesystem12ReadableFileE",
            "__ZN13sentencepiece10normalizer10Normalizer19kMaxTrieResultsSizeE",
            "__ZTIN6google8protobuf8internal16InternalMetadata9ContainerINSt3__112basic_stringIcNS4_11char_traitsIcEENS4_9allocatorIcEEEEEE",
            "__ZTSNSt3__110__function6__baseIFNS_10unique_ptrIN4absl12lts_2024072213time_internal4cctz14ZoneInfoSourceENS_14default_deleteIS7_EEEERKNS_12basic_stringIcNS_11char_traitsIcEENS_9allocatorIcEEEEEEE",
            "__ZTSFbN4absl12lts_2024072211string_viewEE",
            "__ZN4absl12lts_2024072213base_internal11FastTypeTagImE9dummy_varE",
            "__ZTIN4absl12lts_2024072214flags_internal9FlagStateE",
            "__ZZN4absl12lts_2024072213base_internal12CallOnceImplIRFvvEJEEEvPNSt3__16atomicIjEENS1_14SchedulingModeEOT_DpOT0_E5trans",
            "__ZTSN6google8protobuf13RepeatedFieldIxEE",
            "__ZTSN6google8protobuf8internal20RepeatedPtrFieldBaseE",
            "__ZN4absl12lts_2024072213base_internal11FastTypeTagIiE9dummy_varE",
            "__ZN4absl12lts_2024072213base_internal11FastTypeTagIsE9dummy_varE",
            "__ZTSN6google8protobuf8internal16InternalMetadata9ContainerINSt3__112basic_stringIcNS4_11char_traitsIcEENS4_9allocatorIcEEEEEE",
            "__ZTIN5Darts7Details9ExceptionE",
            "__ZTSNSt3__119basic_istringstreamIcNS_11char_traitsIcEENS_9allocatorIcEEEE",
            "__ZN28qvac_lib_inference_addon_cpp11JsInterfaceINS_5AddonIN35qvac_lib_inference_addon_mlc_marian16TranslationModelEEEE13instancesMtx_E",
            "__ZTIN6google8protobuf8internal20RepeatedPtrFieldBaseE",
            "__ZN28qvac_lib_inference_addon_cpp11JsInterfaceINS_5AddonIN35qvac_lib_inference_addon_mlc_marian16TranslationModelEEEE10instances_E",
            "__ZTINSt3__110__function6__baseIFNS_10unique_ptrIN4absl12lts_2024072213time_internal4cctz14ZoneInfoSourceENS_14default_deleteIS7_EEEERKNS_12basic_stringIcNS_11char_traitsIcEENS_9allocatorIcEEEEEEE",
            "__ZZN6google8protobuf8internal12ShutdownData3getEvE4data",
            "__ZTIN6google8protobuf13RepeatedFieldIiEE",
            "__ZTSNSt3__120__shared_ptr_emplaceIN13sentencepiece17SentencePieceTextENS_9allocatorIS2_EEEE",
            "__ZN4absl12lts_2024072213base_internal11FastTypeTagIyE9dummy_varE",
            "__ZTIPFNSt3__112basic_stringIcNS_11char_traitsIcEENS_9allocatorIcEEEEvE",
            "__ZTSNSt3__110__function6__baseIFNS_12basic_stringIcNS_11char_traitsIcEENS_9allocatorIcEEEEvEEE",
            "__ZTSNSt3__117bad_function_callE",
            "__ZTSN4ggml3cpu6repack13tensor_traitsI10block_q4_0Lx8ELx4EL9ggml_type8EEE",
            "__ZTIN6google8protobuf13RepeatedFieldIdEE",
            "__ZGVN28qvac_lib_inference_addon_cpp11JsInterfaceINS_5AddonIN35qvac_lib_inference_addon_mlc_marian16TranslationModelEEEE13instancesMtx_E",
            "__ZTINSt3__119basic_ostringstreamIcNS_11char_traitsIcEENS_9allocatorIcEEEE",
            "__ZTSN6google8protobuf13RepeatedFieldIdEE",
            "__ZTIN4ggml3cpu6repack13tensor_traitsI10block_q4_0Lx8ELx4EL9ggml_type8EEE",
            "__ZNSt3__119piecewise_constructE",
            "__ZTIPFNSt3__112basic_stringIcNS_11char_traitsIcEENS_9allocatorIcEEEEN4absl12lts_2024072211string_viewEE",
            "__ZTIN6google8protobuf13RepeatedFieldIjEE",
            "__ZTIN13sentencepiece10filesystem17PosixWritableFileE",
            "__ZTINSt3__120__shared_ptr_emplaceIN13sentencepiece17SentencePieceTextENS_9allocatorIS2_EEEE",
            "__ZZN4absl12lts_2024072218container_internal12raw_hash_setINS1_17FlatHashMapPolicyINSt3__112basic_stringIcNS4_11char_traitsIcEENS4_9allocatorIcEEEEhEENS1_10StringHashENS1_8StringEqENS8_INS4_4pairIKSA_hEEEEE18GetPolicyFunctionsEvE5value",
            "__ZN4absl12lts_2024072213base_internal11FastTypeTagIjE9dummy_varE",
            "__ZTSNSt3__110__function6__baseIFNS_12basic_stringIcNS_11char_traitsIcEENS_9allocatorIcEEEEN4absl12lts_2024072211string_viewEEEE",
            "__ZTSN5Darts7Details9ExceptionE",
            "__ZN4absl12lts_2024072213base_internal11FastTypeTagIbE9dummy_varE",
            "__ZZN4absl12lts_2024072218container_internal12raw_hash_setINS1_17FlatHashMapPolicyINS0_11string_viewEiEENS1_10StringHashENS1_8StringEqENSt3__19allocatorINS8_4pairIKS4_iEEEEE18GetPolicyFunctionsEvE5value",
            "__ZTSN4ggml3cpu6repack17extra_buffer_typeE",
            "__ZTSNSt3__110__function6__baseIFvN4absl12lts_2024072211string_viewEPNS_6vectorINS_4pairIS4_iEENS_9allocatorIS7_EEEEEEE",
            "__ZTSFNSt3__112basic_stringIcNS_11char_traitsIcEENS_9allocatorIcEEEEvE",
            "__ZTSNSt3__113basic_filebufIcNS_11char_traitsIcEEEE",
            "__ZTSN6google8protobuf13RepeatedFieldIjEE",
            "__ZTIN6google8protobuf8internal12ExtensionSet8KeyValueE"
          ]
        },
        "text": {
          "global": [
            "__ZN4absl12lts_20240722lsERNSt3__113basic_ostreamIcNS1_11char_traitsIcEEEENS0_6int128E",
            "_ggml_backend_name",
            "__ZN4absl12lts_2024072214flags_internal7UnparseEm",
            "__ZN4absl12lts_2024072214flags_internal15AbslUnparseFlagERKNSt3__16vectorINS2_12basic_stringIcNS2_11char_traitsIcEENS2_9allocatorIcEEEENS7_IS9_EEEE",
            "__ZN4absl12lts_2024072214flags_internal13MaskedPointer3SetEPFPvNS1_6FlagOpEPKvS3_S3_ES6_b",
            "__ZN13sentencepiece7unigram5ModelD2Ev",
            "__ZN13sentencepiece4util6StatusD2Ev",
            "__ZN6google8protobuf22Base64UnescapeInternalEPKciPciPKa",
            "__ZNK13sentencepiece26ImmutableSentencePieceText6piecesEv",
            "__ZNK6google8protobuf8internal12ExtensionSet9Extension53InternalSerializeMessageSetItemWithCachedSizesToArrayEPKNS0_11MessageLiteEPKS2_iPhPNS0_2io19EpsCopyOutputStreamE",
            "__ZN13sentencepiece7unigram7LatticeC2Ev",
            "__ZN4absl12lts_2024072215CommandLineFlag9ParseFromENS0_11string_viewEPNSt3__112basic_stringIcNS3_11char_traitsIcEENS3_9allocatorIcEEEE",
            "_ggml_backend_dev_count",
            "__ZN6google8protobuf11safe_strtofEPKcPf",
            "__ZN4absl12lts_2024072219ToDoubleNanosecondsENS0_8DurationE",
            "__ZNK13sentencepiece22SentencePieceProcessor12SampleEncodeEN4absl12lts_2024072211string_viewEifPNSt3__16vectorINS4_12basic_stringIcNS4_11char_traitsIcEENS4_9allocatorIcEEEENS9_ISB_EEEE",
            "__ZNK6google8protobuf11MessageLite24SerializePartialToStringEPNSt3__112basic_stringIcNS2_11char_traitsIcEENS2_9allocatorIcEEEE",
            "__ZN4absl12lts_2024072219str_format_internal17FormatConvertImplEfNS1_24FormatConversionSpecImplEPNS1_14FormatSinkImplE",
            "__ZN6google8protobuf2io16CodedInputStream9PushLimitEi",
            "__ZN6google8protobuf8internal12ExtensionSet8AddInt32EihbiPKNS0_15FieldDescriptorE",
            "__ZNK6google8protobuf20stringpiece_internal11StringPiece16find_last_not_ofES2_m",
            "__ZN13sentencepiece11TrainerSpec14_InternalParseEPKcPN6google8protobuf8internal12ParseContextE",
            "_ggml_backend_sched_get_backend",
            "__ZN6google8protobuf15DelocalizeRadixEPc",
            "_ggml_backend_cpu_init",
            "_ggml_backend_dev_buffer_from_host_ptr",
            "__ZN13sentencepiece10normalizer10NormalizerC2ERKNS_14NormalizerSpecE",
            "_ggml_print_backtrace",
            "_ggml_quantize_chunk",
            "_ggml_backend_init_by_name",
            "__ZN6google8protobuf2io26CopyingOutputStreamAdaptor6BackUpEi",
            "_ggml_compute_forward_flash_attn_back",
            "__ZN6google8protobuf21UnescapeCEscapeStringERKNSt3__112basic_stringIcNS1_11char_traitsIcEENS1_9allocatorIcEEEEPS7_",
            "_ggml_im2col",
            "__ZN28qvac_lib_inference_addon_cpp11JsInterfaceINS_5AddonIN35qvac_lib_inference_addon_mlc_marian16TranslationModelEEEE4loadEP8js_env_sP18js_callback_info_s",
            "__ZN13sentencepiece14NormalizerSpec5ClearEv",
            "_ggml_compute_forward_map_custom2",
            "__ZN4absl12lts_2024072213base_internal6GetTIDEv",
            "__ZN4absl12lts_2024072213AbslParseFlagENS0_11string_viewEPNS0_11LogSeverityEPNSt3__112basic_stringIcNS4_11char_traitsIcEENS4_9allocatorIcEEEE",
            "__ZN4absl12lts_2024072214flags_internal7UnparseEd",
            "_ggml_rope_custom",
            "__ZN6google8protobuf2io16CodedInputStream7RefreshEv",
            "__ZN4absl12lts_2024072219str_format_internal13FlagsToStringENS1_5FlagsE",
            "__ZNK4absl12lts_2024072213time_internal4cctz9time_zone11descriptionEv",
            "__ZN6google8protobuf8internal12ExtensionSet19ParseMessageSetItemEPKcPKNS0_11MessageLiteEPNS1_16InternalMetadataEPNS1_12ParseContextE",
            "__ZN6google8protobuf8internal10LogMessage6FinishEv",
            "_ggml_exp_inplace",
            "_ggml_cpu_has_sse3",
            "__ZN6google8protobuf8internal14NullLogHandlerENS0_8LogLevelEPKciRKNSt3__112basic_stringIcNS5_11char_traitsIcEENS5_9allocatorIcEEEE",
            "__ZN4absl12lts_2024072216raw_log_internal30RegisterLogFilterAndPrefixHookEPFbNS0_11LogSeverityEPKciPPcPiE",
            "__ZN4absl12lts_2024072218container_internal29find_first_non_full_outoflineERKNS1_12CommonFieldsEm",
            "__ZN6google8protobuf8internal6IsNullILi11EEEbPKv",
            "_ggml_fp32_to_bf16_row",
            "__ZN6google8protobuf8internal12ExtensionSet25UnsafeArenaReleaseMessageEiRKNS0_11MessageLiteE",
            "__ZN6google8protobuf8internal24UTF8SpnStructurallyValidENS0_20stringpiece_internal11StringPieceE",
            "__ZN6google8protobuf11MessageLite27ParsePartialFromCodedStreamEPNS0_2io16CodedInputStreamE",
            "_quantize_row_q8_K_generic",
            "_ggml_new_f32",
            "__ZN13sentencepiece11TrainerSpec9MergeFromERKS0_",
            "_ggml_is_permuted",
            "__ZNK4absl12lts_202407228TimeZone2AtENS0_13time_internal4cctz6detail10civil_timeINS2_10second_tagEEE",
            "__ZN13sentencepiece5error14SetTestCounterEi",
            "__ZN13sentencepiece3bpe5ModelD2Ev",
            "__ZN4absl12lts_2024072219str_format_internal17FormatConvertImplENS0_7uint128ENS1_24FormatConversionSpecImplEPNS1_14FormatSinkImplE",
            "_ggml_gelu_erf_inplace",
            "_ggml_vec_dot_iq3_s_q8_K",
            "_ggml_view_2d",
            "__ZN13sentencepiece4util6StatusD1Ev",
            "__ZN6google8protobuf2io19EpsCopyOutputStream5FlushEPh",
            "__ZN6google8protobuf7uint128rMERKS1_",
            "__ZNK13sentencepiece3bpe5Model12SampleEncodeEN4absl12lts_2024072211string_viewEf",
            "__ZN6google8protobuf2io15FileInputStream22CopyingFileInputStreamD1Ev",
            "__ZNK13sentencepiece7unigram5Model13PopulateNodesEPNS0_7LatticeE",
            "__ZN6google8protobuf2io17ArrayOutputStreamC1EPvii",
            "_ggml_vec_dot_q5_K_q8_K",
            "__ZN6google8protobuf2io16CodedInputStream16ReadVarint64SlowEPy",
            "__ZNK6google8protobuf2io15FileInputStream9ByteCountEv",
            "__ZN4absl12lts_2024072218container_internal21PrepareInsertAfterSooEmmRNS1_12CommonFieldsE",
            "__ZN6google8protobuf22GlobalReplaceSubstringERKNSt3__112basic_stringIcNS1_11char_traitsIcEENS1_9allocatorIcEEEES9_PS7_",
            "_ggml_pool_2d",
            "__ZNK6google8protobuf20stringpiece_internal11StringPiece14AppendToStringEPNSt3__112basic_stringIcNS3_11char_traitsIcEENS3_9allocatorIcEEEE",
            "_ggml_compute_forward_get_rows_back",
            "__ZN4absl12lts_2024072224synchronization_internal13PthreadWaiter4WaitENS1_13KernelTimeoutE",
            "_ggml_fp32_to_bf16",
            "_ggml_backend_buffer_init_tensor",
            "__ZN6google8protobuf8internal14WireFormatLite17WriteFixed64ArrayEPKyiPNS0_2io17CodedOutputStreamE",
            "__ZN13sentencepiece11string_util17UTF8ToUnicodeTextEN4absl12lts_2024072211string_viewE",
            "__ZN13sentencepiece35ModelProto_SentencePiece_Type_ParseERKNSt3__112basic_stringIcNS0_11char_traitsIcEENS0_9allocatorIcEEEEPNS_29ModelProto_SentencePiece_TypeE",
            "__ZN6google8protobuf4util15status_internal12UnknownErrorENS0_20stringpiece_internal11StringPieceE",
            "__ZN4absl12lts_2024072213hash_internal10CityHash32EPKcm",
            "__ZN13sentencepiece9character5ModelC1ERKNS_10ModelProtoE",
            "__ZN4absl12lts_2024072216strings_internal9CatPiecesESt16initializer_listINS0_11string_viewEE",
            "__ZNK13sentencepiece26ImmutableSentencePieceText5scoreEv",
            "_ggml_acc",
            "__ZN4absl12lts_2024072225GetStackFramesWithContextEPPvPiiiPKvS3_",
            "__ZN4absl12lts_2024072213time_internal4cctz9time_zone4Impl3UTCEv",
            "__ZN4absl12lts_202407225Mutex11AwaitCommonERKNS0_9ConditionENS0_24synchronization_internal13KernelTimeoutE",
            "__ZN6google8protobuf4util15status_internal6StatusC1ERKS3_",
            "__ZN6google8protobuf11MessageLite21ParsePartialFromArrayEPKvi",
            "_ggml_hash_set_new",
            "__ZN6google8protobuf4util15status_internal18UnimplementedErrorENS0_20stringpiece_internal11StringPieceE",
            "__ZN13sentencepiece22NBestSentencePieceTextC2EPN6google8protobuf5ArenaEb",
            "__ZNK4absl12lts_202407226int1288ToStringEv",
            "__ZNK13sentencepiece22SentencePieceProcessor6EncodeEN4absl12lts_2024072211string_viewEPNSt3__16vectorINS4_12basic_stringIcNS4_11char_traitsIcEENS4_9allocatorIcEEEENS9_ISB_EEEE",
            "_ggml_cross_entropy_loss",
            "__ZN4absl12lts_2024072214flags_internal24SetProgramInvocationNameENS0_11string_viewE",
            "__ZN6google8protobuf8internal14WireFormatLite12WriteMessageEiRKNS0_11MessageLiteEPNS0_2io17CodedOutputStreamE",
            "_ggml_is_matrix",
            "__ZN4absl12lts_2024072224synchronization_internal13PthreadWaiterC2Ev",
            "_ggml_map_custom2_inplace",
            "__ZN6google8protobuf20Base64EscapeInternalEPKhiPNSt3__112basic_stringIcNS3_11char_traitsIcEENS3_9allocatorIcEEEEbPKc",
            "_ggml_backend_sched_alloc_graph",
            "__ZN6google8protobuf4util15status_internal15IsAlreadyExistsERKNS2_6StatusE",
            "__ZNK4absl12lts_2024072214flags_internal8FlagImpl15AssertValidTypeEPKvPFPKSt9type_infovE",
            "__ZN4absl12lts_202407228DurationpLES1_",
            "_ggml_cont_1d",
            "__ZN4ggml3cpu13tensor_traitsD2Ev",
            "_ggml_compute_forward_repeat",
            "__ZNK13sentencepiece7unigram7Lattice7surfaceEi",
            "__Z21nmt_get_runtime_statsP11nmt_contextPdS1_Pi",
            "__ZN6google8protobuf8internal16ReadSizeFallbackEPKcj",
            "__ZN13sentencepiece14NormalizerSpecD0Ev",
            "__ZN6google8protobuf20stringpiece_internal11StringPiece18LogFatalSizeTooBigEmPKc",
            "__ZNK13sentencepiece14NormalizerSpec18_InternalSerializeEPhPN6google8protobuf2io19EpsCopyOutputStreamE",
            "__ZN4absl12lts_2024072219str_format_internal17FormatConvertImplEaNS1_24FormatConversionSpecImplEPNS1_14FormatSinkImplE",
            "__ZN4ggml3cpu6repack6repackI12block_iq4_nlLx4ELx4EEEiP11ggml_tensorPKvm",
            "_ggml_set_f32_1d",
            "_ggml_backend_tensor_copy_async",
            "_ggml_backend_alloc_buffer",
            "__ZNK13sentencepiece22SentencePieceProcessor22serialized_model_protoEv",
            "__ZN6google8protobuf8internal15ThreadSafeArena4InitEv",
            "_ggml_add",
            "__ZN6google8protobuf8internal17PackedInt64ParserEPvPKcPNS1_12ParseContextE",
            "_ggml_mean",
            "__ZN4absl12lts_2024072219str_format_internal17FormatConvertImplENS0_6int128ENS1_24FormatConversionSpecImplEPNS1_14FormatSinkImplE",
            "__ZN6google8protobuf8internal14WireFormatLite12WriteFixed64EiyPNS0_2io17CodedOutputStreamE",
            "__ZN13sentencepiece22NBestSentencePieceText5ClearEv",
            "__ZN6google8protobuf7ClosureD0Ev",
            "_dequantize_row_iq2_xxs",
            "_ggml_cpu_has_avx512_vnni",
            "__ZN13sentencepiece3bpe5ModelD1Ev",
            "__ZN4absl12lts_2024072213AbslParseFlagENS0_11string_viewEPNS0_8DurationEPNSt3__112basic_stringIcNS4_11char_traitsIcEENS4_9allocatorIcEEEE",
            "_ggml_build_forward_expand",
            "__ZN6google8protobuf8internal25RepeatedPrimitiveDefaults16default_instanceEv",
            "__ZN13sentencepiece19SelfTestData_SampleD1Ev",
            "__ZN6google8protobuf8internal18EpsCopyInputStream12DoneFallbackEii",
            "__ZNK13sentencepiece22SentencePieceProcessor6EncodeEN4absl12lts_2024072211string_viewEPNSt3__16vectorIiNS4_9allocatorIiEEEE",
            "__ZN13sentencepiece22NBestSentencePieceText8CopyFromERKS0_",
            "__ZN6google8protobuf8internal15LookUpEnumValueEPKNS1_9EnumEntryEmNS0_20stringpiece_internal11StringPieceEPi",
            "__ZN4absl12lts_2024072210FromChronoERKNSt3__16chrono10time_pointINS2_12system_clockENS2_8durationIxNS1_5ratioILl1ELl1000000EEEEEEE",
            "__ZN4absl12lts_2024072210SimpleAtobENS0_11string_viewEPb",
            "__ZN6google8protobuf16SplitStringUsingENS0_20stringpiece_internal11StringPieceEPKcPNSt3__16vectorINS5_12basic_stringIcNS5_11char_traitsIcEENS5_9allocatorIcEEEENSA_ISC_EEEE",
            "__ZN6google8protobuf8internal10LogMessagelsEi",
            "__ZN6google8protobuf8internal14WireFormatLite9WriteBoolEibPNS0_2io17CodedOutputStreamE",
            "_ggml_backend_load_all_from_path",
            "__ZN4absl12lts_2024072221StrContainsIgnoreCaseENS0_11string_viewEc",
            "__ZN4absl12lts_202407226StrCatERKNS0_8AlphaNumES3_S3_S3_",
            "__ZN4absl12lts_2024072215ConvertDateTimeExiiiiiNS0_8TimeZoneE",
            "_ggml_is_transposed",
            "__ZN4absl12lts_2024072213time_internal4cctz17FixedOffsetToAbbrERKNSt3__16chrono8durationIxNS3_5ratioILl1ELl1EEEEE",
            "_ggml_graph_add_node",
            "_quantize_row_q3_K",
            "__ZN28qvac_lib_inference_addon_cpp5AddonIN35qvac_lib_inference_addon_mlc_marian16TranslationModelEE12processStateERNSt3__110unique_ptrINS_3JobINS4_12basic_stringIcNS4_11char_traitsIcEENS4_9allocatorIcEEEEEENS4_14default_deleteISD_EEEERSC_",
            "__ZN13sentencepiece49ImmutableSentencePieceText_ImmutableSentencePieceC2ERKNS_31SentencePieceText_SentencePieceE",
            "__ZN6google8protobuf8internal14WireFormatLite10SInt32SizeERKNS0_13RepeatedFieldIiEE",
            "__ZN13sentencepiece22GetRandomGeneratorSeedEv",
            "__ZN6google8protobuf4util15status_internal20UnauthenticatedErrorENS0_20stringpiece_internal11StringPieceE",
            "_ggml_graph_clear",
            "__ZN13sentencepiece12SelfTestDataC1ERKS0_",
            "_ggml_sqrt_inplace",
            "__ZNK13sentencepiece22SentencePieceProcessor6IsByteEi",
            "__ZN6google8protobuf4util15status_internal15OutOfRangeErrorENS0_20stringpiece_internal11StringPieceE",
            "__ZN13sentencepiece12SelfTestDataC2ERKS0_",
            "__ZN6google8protobuf19WebSafeBase64EscapeENS0_20stringpiece_internal11StringPieceEPNSt3__112basic_stringIcNS3_11char_traitsIcEENS3_9allocatorIcEEEE",
            "__ZN6google8protobuf8internal26UnknownFieldSerializerLiteEPKhjjjPNS0_2io17CodedOutputStreamE",
            "__ZN4absl12lts_2024072213base_internal18ThrowStdLogicErrorEPKc",
            "_ggml_backend_get_max_size",
            "__ZN4absl12lts_2024072213time_internal4cctz14ZoneInfoSourceD2Ev",
            "__ZN6google8protobuf8internal11SerialArena3NewENS2_6MemoryEPvPNS1_20ThreadSafeArenaStatsE",
            "__ZN6google8protobuf2io24ConcatenatingInputStream4NextEPPKvPi",
            "__ZN13sentencepiece17SentencePieceTextC1ERKS0_",
            "_ggml_flash_attn_back",
            "_quantize_q4_1",
            "__ZN6google8protobuf2io19OstreamOutputStream4NextEPPvPi",
            "__ZN6google8protobuf8internal15ThreadSafeArena34AllocateAlignedWithCleanupFallbackEmPKSt9type_info",
            "__ZN6google8protobuf4util15status_internal9IsUnknownERKNS2_6StatusE",
            "__ZN13sentencepiece4util6StatusC1ERKS1_",
            "__ZNK6google8protobuf4util15status_internal6StatuseqERKS3_",
            "__ZN6google8protobuf8internal14WireFormatLite11WriteStringEiRKNSt3__112basic_stringIcNS3_11char_traitsIcEENS3_9allocatorIcEEEEPNS0_2io17CodedOutputStreamE",
            "__ZNK13sentencepiece22SentencePieceProcessor20SampleEncodeAndScoreEN4absl12lts_2024072211string_viewEifbbPNSt3__16vectorINS4_4pairINS5_INS4_12basic_stringIcNS4_11char_traitsIcEENS4_9allocatorIcEEEENSA_ISC_EEEEfEENSA_ISF_EEEE",
            "_ggml_soft_max_ext_back_inplace",
            "__ZNK13sentencepiece4util6StatuseqERKS1_",
            "__ZN6google8protobuf8internal15ThreadSafeArena15SetInitialBlockEPvm",
            "_ggml_compute_forward_cont",
            "__ZN6google8protobuf8internal14WireFormatLite11WriteUInt64EiyPNS0_2io17CodedOutputStreamE",
            "__ZN4absl12lts_202407225Mutex4LockEv",
            "__ZN4absl12lts_2024072229SetMutexDeadlockDetectionModeENS0_15OnDeadlockCycleE",
            "_ggml_gallocr_new",
            "_ggml_tanh_inplace",
            "__ZN13sentencepiece10normalizer10NormalizerC2ERKNS_14NormalizerSpecERKNS_11TrainerSpecE",
            "_ggml_compute_forward_div",
            "_ggml_backend_sched_synchronize",
            "__ZN13sentencepiece6random18GetRandomGeneratorEv",
            "_ggml_backend_buffer_get_usage",
            "_ggml_used_mem",
            "_ggml_op_symbol",
            "__ZN6google8protobuf2io26CopyingOutputStreamAdaptor15WriteAliasedRawEPKvi",
            "__ZN13sentencepiece49ImmutableSentencePieceText_ImmutableSentencePieceC1Ev",
            "_quantize_row_q8_0_generic",
            "_ggml_diag",
            "__ZN4absl12lts_2024072224synchronization_internal13KernelTimeoutC1ENS0_4TimeE",
            "__ZN6google8protobuf2io19OstreamOutputStream26CopyingOstreamOutputStreamD0Ev",
            "_ggml_fp16_to_fp32",
            "__ZN13sentencepiece17SentencePieceTextC2ERKS0_",
            "__ZN4absl12lts_202407227uint128C2Ee",
            "_dequantize_row_iq2_xs",
            "_ggml_bf16_to_fp32",
            "_ggml_add_inplace",
            "_quantize_row_q3_K_ref",
            "_ggml_log_callback_default",
            "__ZNK4absl12lts_2024072213time_internal4cctz12TimeZoneLibC14NextTransitionERKNSt3__16chrono10time_pointINS5_12system_clockENS5_8durationIxNS4_5ratioILl1ELl1EEEEEEEPNS2_9time_zone16civil_transitionE",
            "__ZN6google8protobuf4util15status_internal23FailedPreconditionErrorENS0_20stringpiece_internal11StringPieceE",
            "__ZN6google8protobuf8internal14ArenaStringPtr7DestroyEv",
            "__ZN4absl12lts_2024072218debugging_internal22StackTraceWorksForTestEv",
            "__ZN13sentencepiece14NormalizerSpec8CopyFromERKS0_",
            "__ZN6google8protobuf2io18IstreamInputStream4SkipEi",
            "_ggml_backend_buft_get_max_size",
            "__ZNK6google8protobuf11MessageLite29SerializePartialToCodedStreamEPNS0_2io17CodedOutputStreamE",
            "_ggml_set_loss",
            "_ggml_aligned_free",
            "__ZN6google8protobuf8internal14WireFormatLite8EnumSizeERKNS0_13RepeatedFieldIiEE",
            "__ZN6google8protobuf6StrCatERKNS0_7strings8AlphaNumES4_S4_",
            "__ZN13sentencepiece26ImmutableSentencePieceTextC2Ev",
            "_ggml_clamp",
            "_ggml_sum_rows",
            "__ZN6google8protobuf2io16CodedInputStream27ReadVarintSizeAsIntFallbackEv",
            "__ZN13sentencepiece19SelfTestData_Sample8CopyFromERKS0_",
            "_ggml_backend_sched_get_n_copies",
            "_ggml_compute_forward_win_unpart",
            "_ggml_ssm_conv",
            "_ggml_backend_supports_buft",
            "__ZN4absl12lts_202407225Mutex12LockSlowLoopEPNS0_15SynchWaitParamsEi",
            "__ZN4absl12lts_2024072214FormatDurationENS0_8DurationE",
            "__ZNK4absl12lts_2024072213time_internal4cctz12TimeZoneLibC9BreakTimeERKNSt3__16chrono10time_pointINS5_12system_clockENS5_8durationIxNS4_5ratioILl1ELl1EEEEEEE",
            "__ZN6google8protobuf2io16CodedInputStream22ReadLengthAndPushLimitEv",
            "_ggml_set",
            "__ZN13sentencepiece11TrainerSpecD0Ev",
            "__ZN13sentencepiece7unigram7LatticeD1Ev",
            "__ZN4absl12lts_202407224ToTMENS0_4TimeENS0_8TimeZoneE",
            "__ZN6google8protobuf5Arena18CreateMaybeMessageIN13sentencepiece10ModelProtoEJEEEPT_PS1_DpOT0_",
            "__ZNK13sentencepiece22SentencePieceProcessor6DecodeERKNSt3__16vectorINS1_12basic_stringIcNS1_11char_traitsIcEENS1_9allocatorIcEEEENS6_IS8_EEEEPS8_",
            "__ZN4absl12lts_2024072219str_format_internal17FormatConvertImplEjNS1_24FormatConversionSpecImplEPNS1_14FormatSinkImplE",
            "__ZN6google8protobuf8internal15ThreadSafeArenaD2Ev",
            "__ZN13sentencepiece31SentencePieceText_SentencePieceC2ERKS0_",
            "_ggml_new_tensor_3d",
            "__ZNK4absl12lts_2024072211string_view5rfindEcm",
            "_ggml_set_no_alloc",
            "__ZNK6google8protobuf8internal12ExtensionSet11GetRefInt64EiRKx",
            "__ZN6google8protobuf8internal17VarintParseSlow64EPKcj",
            "__ZN6google8protobuf2io16FileOutputStream23CopyingFileOutputStream5WriteEPKvi",
            "__ZN4absl12lts_202407229ConditionC2EPFbPvES2_",
            "__ZN4absl12lts_2024072212ToUnixMicrosENS0_4TimeE",
            "_ggml_compute_forward_add_non_quantized",
            "_ggml_compute_forward_cpy",
            "__ZN4absl12lts_2024072213time_internal4cctz13utc_time_zoneEv",
            "__ZN4absl12lts_2024072214flags_internal13AbslParseFlagENS0_11string_viewEPfPNSt3__112basic_stringIcNS4_11char_traitsIcEENS4_9allocatorIcEEEE",
            "_ggml_compute_forward_diag_mask_inf",
            "_ggml_type_name",
            "__ZNK4absl12lts_2024072214flags_internal13MaskedPointer26IsUnprotectedReadCandidateEv",
            "_ggml_get_mem_buffer",
            "__ZNK13sentencepiece9character5Model6EncodeEN4absl12lts_2024072211string_viewE",
            "__ZNK6google8protobuf8internal12ExtensionSet9GetUInt32Eij",
            "_ggml_compute_forward_permute",
            "_ggml_sgn",
            "__ZNK13sentencepiece4word5Model6EncodeEN4absl12lts_2024072211string_viewE",
            "__ZN13sentencepiece14NormalizerSpec9MergeFromERKS0_",
            "__ZN4absl12lts_2024072213time_internal4cctz14ZoneInfoSourceD1Ev",
            "__ZNK6google8protobuf8internal12ExtensionSet9GetStringEiRKNSt3__112basic_stringIcNS3_11char_traitsIcEENS3_9allocatorIcEEEE",
            "__ZN4absl12lts_2024072215ToChronoSecondsENS0_8DurationE",
            "_ggml_sub",
            "__ZN35qvac_lib_inference_addon_mlc_marian14createInstanceEP8js_env_sP18js_callback_info_s",
            "__ZN4absl12lts_2024072216numbers_internal15FastIntToBufferEiPc",
            "__ZN6google8protobuf2io26CopyingOutputStreamAdaptorD1Ev",
            "__ZN4absl12lts_2024072215AbslUnparseFlagENS0_11LogSeverityE",
            "__ZN6google8protobuf8internal17VarintParseSlow32EPKcj",
            "__ZN6google8protobuf21WebSafeBase64UnescapeENS0_20stringpiece_internal11StringPieceEPNSt3__112basic_stringIcNS3_11char_traitsIcEENS3_9allocatorIcEEEE",
            "_ggml_graph_reset",
            "__ZN6google8protobuf11MessageLite37MergePartialFromBoundedZeroCopyStreamEPNS0_2io19ZeroCopyInputStreamEi",
            "__ZN4ggml3cpu6repack4gemvI10block_q4_0Lx4ELx4EL9ggml_type8EEEviPfmPKvS7_ii",
            "_dequantize_row_iq4_nl",
            "_ggml_cpu_has_amx_int8",
            "__ZNK13sentencepiece4util6StatusneERKS1_",
            "_ggml_add_rel_pos_inplace",
            "__ZN13sentencepiece4word5ModelC1ERKNS_10ModelProtoE",
            "_ggml_compute_forward_soft_max_ext_back",
            "__ZN4absl12lts_202407225Mutex5TransEPKNS0_6MuHowSE",
            "__ZN6google8protobuf8internal12ExtensionSet14ClearExtensionEi",
            "_ggml_compute_forward_transpose",
            "__ZNK13sentencepiece14NormalizerSpec13SetCachedSizeEi",
            "__ZN6google8protobuf8internal16InternalMetadata6DoSwapINSt3__112basic_stringIcNS4_11char_traitsIcEENS4_9allocatorIcEEEEEEvPT_",
            "__ZN4absl12lts_202407225Mutex8LockSlowEPKNS0_6MuHowSEPKNS0_9ConditionEi",
            "_ggml_backend_sched_graph_compute",
            "__ZN6google8protobuf4util15status_internal19IsResourceExhaustedERKNS2_6StatusE",
            "__ZN4absl12lts_2024072213time_internal4cctz12TimeZoneLibC4MakeERKNSt3__112basic_stringIcNS4_11char_traitsIcEENS4_9allocatorIcEEEE",
            "__ZNK4absl12lts_2024072214flags_internal8FlagImpl4HelpEv",
            "_ggml_quantize_init",
            "__ZN6google8protobuf14Base64UnescapeENS0_20stringpiece_internal11StringPieceEPNSt3__112basic_stringIcNS3_11char_traitsIcEENS3_9allocatorIcEEEE",
            "__ZN6google8protobuf8internal16FunctionClosure0D1Ev",
            "_ggml_pad_reflect_1d",
            "_ggml_gallocr_reserve_n",
            "__ZN28qvac_lib_inference_addon_cpp5AddonIN35qvac_lib_inference_addon_mlc_marian16TranslationModelEE11loadWeightsERKNSt3__112basic_stringIcNS4_11char_traitsIcEENS4_9allocatorIcEEEENS4_4spanIKhLm18446744073709551615EEEb",
            "_ggml_log_internal",
            "_ggml_get_type_traits_cpu",
            "__ZN13sentencepiece22SentencePieceProcessorC2Ev",
            "__Z15nmt_reset_stateP11nmt_context",
            "_ggml_cpu_bf16_to_fp32",
            "__ZN4absl12lts_2024072213base_internal12GetCachedTIDEv",
            "_ggml_conv_transpose_2d_p0",
            "__ZN6google8protobuf4util15status_internal11IsCancelledERKNS2_6StatusE",
            "_ggml_threadpool_new",
            "__ZNK13sentencepiece22SentencePieceProcessor6EncodeEN4absl12lts_2024072211string_viewEPNS_17SentencePieceTextE",
            "__ZN4absl12lts_2024072213base_internal18ThrowStdOutOfRangeERKNSt3__112basic_stringIcNS2_11char_traitsIcEENS2_9allocatorIcEEEE",
            "_ggml_new_buffer",
            "__ZN4absl12lts_2024072213time_internal4cctz15local_time_zoneEv",
            "_dequantize_row_iq2_s",
            "__ZN4absl12lts_2024072216numbers_internal15FastIntToBufferEyPc",
            "__ZN6google8protobuf8internal12ExtensionSet13SwapExtensionEPKNS0_11MessageLiteEPS2_i",
            "__ZN13sentencepiece4word5ModelD1Ev",
            "__ZNK4absl12lts_2024072214flags_internal13MaskedPointer11HasBeenReadEv",
            "__ZN4absl12lts_2024072213base_internal19ThrowStdLengthErrorEPKc",
            "_ggml_are_same_stride",
            "__ZN4absl12lts_2024072219ToChronoNanosecondsENS0_8DurationE",
            "_ggml_set_f32",
            "_ggml_backend_event_new",
            "__ZNK6google8protobuf8internal12ExtensionSet9Extension8ByteSizeEi",
            "_ggml_cpu_has_vsx",
            "_ggml_reshape_2d",
            "__ZN13sentencepiece7logging14GetMinLogLevelEv",
            "__ZN13sentencepiece10normalizer10NormalizerD2Ev",
            "__ZN4absl12lts_202407225Mutex17ReaderTryLockSlowEv",
            "__ZN6google8protobuf7strings8AlphaNumC2ENS1_3HexE",
            "_ggml_compute_forward_soft_max",
            "__ZN4absl12lts_2024072213base_internal24SetCurrentThreadIdentityEPNS1_14ThreadIdentityEPFvPvE",
            "__ZNK4absl12lts_202407227uint1288ToStringEv",
            "__ZN6google8protobuf8internal18PackedSInt32ParserEPvPKcPNS1_12ParseContextE",
            "_ggml_graph_nodes",
            "_ggml_gemv_q4_0_4x8_q8_0",
            "__ZN4absl12lts_2024072216raw_log_internal24RawLoggingFullySupportedEv",
            "__ZN4absl12lts_202407223NowEv",
            "_ggml_count_equal",
            "__ZN6google8protobuf8internal14WireFormatLite10WriteGroupEiRKNS0_11MessageLiteEPNS0_2io17CodedOutputStreamE",
            "__ZN6google8protobuf8internal20RepeatedPtrFieldBase7AddWeakEPKNS0_11MessageLiteE",
            "_ggml_element_size",
            "__ZN4absl12lts_2024072216raw_log_internal6RawLogENS0_11LogSeverityEPKciS4_z",
            "__ZN6google8protobuf8internal12ExtensionSet14MutableMessageEihRKNS0_11MessageLiteEPKNS0_15FieldDescriptorE",
            "_ggml_critical_section_end",
            "_ggml_set_2d",
            "_ggml_backend_supports_op",
            "_ggml_cont_3d",
            "__ZN4absl12lts_2024072214flags_internal8FlagImpl9ParseFromENS0_11string_viewENS1_15FlagSettingModeENS1_11ValueSourceERNSt3__112basic_stringIcNS6_11char_traitsIcEENS6_9allocatorIcEEEE",
            "_ggml_get_i32_1d",
            "__ZN4absl12lts_2024072214flags_internal7UnparseEt",
            "__ZN4absl12lts_2024072219str_format_internal17FormatConvertImplElNS1_24FormatConversionSpecImplEPNS1_14FormatSinkImplE",
            "__ZN35qvac_lib_inference_addon_mlc_marian13unloadWeightsEP8js_env_sP18js_callback_info_s",
            "__ZNK6google8protobuf8internal12ExtensionSet10GetRefEnumEiRKi",
            "__ZN6google8protobuf8internal18EpsCopyInputStream18ReadStringFallbackEPKciPNSt3__112basic_stringIcNS5_11char_traitsIcEENS5_9allocatorIcEEEE",
            "__ZN4absl12lts_2024072215AbslUnparseFlagENS0_8DurationE",
            "__ZN6google8protobuf8internal12ExtensionSet8SetFloatEihfPKNS0_15FieldDescriptorE",
            "__ZN6google8protobuf17FastInt32ToBufferEiPc",
            "__ZN6google8protobuf8internal18EpsCopyInputStream8InitFromEPNS0_2io19ZeroCopyInputStreamE",
            "_ggml_compute_forward_get_rows",
            "__ZN6google8protobuf8internal12ExtensionSet12GrowCapacityEm",
            "__Z26nmt_context_default_paramsv",
            "__ZN4absl12lts_2024072224synchronization_internal13KernelTimeoutC2ENS0_8DurationE",
            "__ZN13sentencepiece31SentencePieceText_SentencePiece12InternalSwapEPS0_",
            "__ZN13sentencepiece22SentencePieceProcessor4LoadEN4absl12lts_2024072211string_viewE",
            "__ZN6google8protobuf2io17CodedOutputStream26WriteStringWithSizeToArrayERKNSt3__112basic_stringIcNS3_11char_traitsIcEENS3_9allocatorIcEEEEPh",
            "__ZN6google8protobuf5Arena18CreateMaybeMessageIN13sentencepiece11TrainerSpecEJEEEPT_PS1_DpOT0_",
            "__ZN4absl12lts_202407225Mutex9TryRemoveEPNS0_13base_internal14PerThreadSynchE",
            "__ZNK6google8protobuf8internal10LazyString4InitEv",
            "_ggml_cpu_has_avx2",
            "_ggml_sqrt",
            "__ZNK6google8protobuf8internal12ExtensionSet26GetPrototypeForLazyMessageEPKNS0_11MessageLiteEi",
            "__ZN13sentencepiece10normalizer10Normalizer4InitEv",
            "__ZN6google8protobuf8internal26DuplicateIfNonNullInternalEPNS0_11MessageLiteE",
            "__ZN6google8protobuf8internal12ExtensionSet13MutableStringEihPKNS0_15FieldDescriptorE",
            "_ggml_argmax",
            "__ZN4absl12lts_2024072213hash_internal12LowLevelHashEPKvmyPKy",
            "__ZN4absl12lts_202407229Condition15GuaranteedEqualEPKS1_S3_",
            "_ggml_backend_buft_alloc_buffer",
            "__ZN4absl12lts_2024072213time_internal4cctz12TimeZoneInfo17GetTransitionTypeEibRKNSt3__112basic_stringIcNS4_11char_traitsIcEENS4_9allocatorIcEEEEPh",
            "_ggml_soft_max_inplace",
            "__ZN4absl12lts_2024072220StartsWithIgnoreCaseENS0_11string_viewES1_",
            "_ggml_compute_forward_im2col",
            "_ggml_diag_mask_inf_inplace",
            "__ZN6google8protobuf8internal12FieldSkipper11SkipMessageEPNS0_2io16CodedInputStreamE",
            "_ggml_scale",
            "__ZN6google8protobuf8internal12ExtensionSetC1EPNS0_5ArenaE",
            "__ZN6google8protobuf8internal17PackedInt32ParserEPvPKcPNS1_12ParseContextE",
            "__ZN13sentencepiece17SentencePieceTextC1EPN6google8protobuf5ArenaEb",
            "__ZN6google8protobuf11LogSilencerD1Ev",
            "__ZN6google8protobuf8internal10VerifyUTF8ENS0_20stringpiece_internal11StringPieceEPKc",
            "_ggml_compute_forward_pool_2d_back",
            "_ggml_reshape_1d",
            "__ZN4absl12lts_2024072212FDivDurationENS0_8DurationES1_",
            "__ZN4absl12lts_202407228DurationmIES1_",
            "__ZN6google8protobuf4util15status_internal22ResourceExhaustedErrorENS0_20stringpiece_internal11StringPieceE",
            "__ZN6google8protobuf2io26CopyingOutputStreamAdaptor4NextEPPvPi",
            "__ZN4absl12lts_2024072224GetStackTraceWithContextEPPviiPKvPi",
            "_ggml_pool_1d",
            "_dequantize_row_q4_1",
            "__ZNK13sentencepiece17SentencePieceText18_InternalSerializeEPhPN6google8protobuf2io19EpsCopyOutputStreamE",
            "__ZN6google8protobuf2io16CodedInputStream18SetTotalBytesLimitEi",
            "__ZN4absl12lts_202407229StrAppendEPNSt3__112basic_stringIcNS1_11char_traitsIcEENS1_9allocatorIcEEEERKNS0_8AlphaNumESB_",
            "__ZN6google8protobuf14DoubleToBufferEdPc",
            "__ZNK13sentencepiece12SelfTestData18_InternalSerializeEPhPN6google8protobuf2io19EpsCopyOutputStreamE",
            "_quantize_tq2_0",
            "_quantize_row_q6_K_ref",
            "_ggml_guid_matches",
            "__ZN4absl12lts_2024072210from_charsEPKcS2_RfNS0_12chars_formatE",
            "__ZN13sentencepiece2io14LoadModelProtoEN4absl12lts_2024072211string_viewEPNS_10ModelProtoE",
            "_ggml_compute_forward_rope_back",
            "_ggml_quantize_mat_q8_0_4x4",
            "__ZNK4absl12lts_2024072214flags_internal8FlagImpl8TryParseENS0_11string_viewERNSt3__112basic_stringIcNS4_11char_traitsIcEENS4_9allocatorIcEEEE",
            "_dequantize_row_q5_K",
            "__ZN13sentencepiece3bpe5ModelD0Ev",
            "_ggml_backend_buft_is_host",
            "__ZN13sentencepiece7unigram7Lattice7NewNodeEv",
            "_ggml_backend_event_record",
            "_ggml_set_name",
            "_ggml_backend_is_cpu",
            "_ggml_conv_transpose_1d",
            "_ggml_permute",
            "__ZN6google8protobuf8internal14NoLocaleStrtodEPKcPPc",
            "__ZN6google8protobuf11MessageLite23ParsePartialFromIstreamEPNSt3__113basic_istreamIcNS2_11char_traitsIcEEEE",
            "__ZN4absl12lts_202407227CondVar6RemoveEPNS0_13base_internal14PerThreadSynchE",
            "__ZN6google8protobuf4util15status_internal12AbortedErrorENS0_20stringpiece_internal11StringPieceE",
            "__ZN6google8protobuf8internal12ExtensionSet7AddEnumEihbiPKNS0_15FieldDescriptorE",
            "_ggml_backend_multi_buffer_set_usage",
            "_ggml_threadpool_pause",
            "__ZN13sentencepiece7unigram5Model9BuildTrieEPNSt3__16vectorINS2_4pairIN4absl12lts_2024072211string_viewEiEENS2_9allocatorIS8_EEEE",
            "__ZN13sentencepiece22SentencePieceProcessor15ResetVocabularyEv",
            "__ZN13sentencepiece14ModelInterfaceD1Ev",
            "__ZN6google8protobuf8internal18EpsCopyInputStream12SkipFallbackEPKci",
            "__ZN4absl12lts_2024072214flags_internal21ProgramInvocationNameEv",
            "__ZN6google8protobuf11MessageLite23ParseFromFileDescriptorEi",
            "__ZN28qvac_lib_inference_addon_cpp11JsInterfaceINS_5AddonIN35qvac_lib_inference_addon_mlc_marian16TranslationModelEEEE6reloadEP8js_env_sP18js_callback_info_s",
            "__ZN6google8protobuf8internal23IsStructurallyValidUTF8EPKci",
            "_ggml_backend_graph_plan_create",
            "_ggml_get_unary_op",
            "__ZN4ggml3cpu17extra_buffer_typeD0Ev",
            "__ZN6google8protobuf8internal14WireFormatLite17WriteFixed32ArrayEPKjiPNS0_2io17CodedOutputStreamE",
            "__ZN13sentencepiece7unigram5ModelC2ERKNS_10ModelProtoE",
            "__ZN4absl12lts_2024072213time_internal4cctz9time_zone4ImplC1ERKNSt3__112basic_stringIcNS5_11char_traitsIcEENS5_9allocatorIcEEEE",
            "_ggml_set_1d",
            "__ZN6google8protobuf8internal23SerializeNotImplementedEi",
            "__ZN4absl12lts_202407227uint128C2Ef",
            "__ZN6google8protobuf8internal12FieldSkipper15SkipUnknownEnumEii",
            "_ggml_compute_forward_cos",
            "_ggml_vec_dot_q3_K_q8_K",
            "_quantize_iq1_m",
            "__ZNK6google8protobuf11MessageLite18SerializeToOstreamEPNSt3__113basic_ostreamIcNS2_11char_traitsIcEEEE",
            "__ZN6google8protobuf8internal29CodedOutputStreamFieldSkipper15SkipUnknownEnumEii",
            "__ZNK13sentencepiece22SentencePieceProcessor6pad_idEv",
            "__ZNK6google8protobuf2io25CopyingInputStreamAdaptor9ByteCountEv",
            "__ZN6google8protobuf8internal14WireFormatLite27WriteSubMessageMaybeToArrayEiRKNS0_11MessageLiteEPNS0_2io17CodedOutputStreamE",
            "__ZN13sentencepiece31SentencePieceText_SentencePiece14_InternalParseEPKcPN6google8protobuf8internal12ParseContextE",
            "__ZN4absl12lts_202407229ConditionC2EPKb",
            "__ZN6google8protobuf11MessageLite27MergePartialFromCodedStreamEPNS0_2io16CodedInputStreamE",
            "__ZNK6google8protobuf11MessageLite31SerializeWithCachedSizesToArrayEPh",
            "__ZN6google8protobuf8internal11SerialArena11CleanupListEv",
            "_ggml_cpu_has_matmul_int8",
            "_quantize_row_iq4_xs_ref",
            "_ggml_barrier",
            "__Z19ggml_quantize_mat_tILx8EL9ggml_type8EEvPKfPvxx",
            "__ZN35qvac_lib_inference_addon_mlc_marian16TranslationModelC2ERKNSt3__112basic_stringIcNS1_11char_traitsIcEENS1_9allocatorIcEEEE",
            "__ZNK6google8protobuf8internal12ExtensionSet7HasLazyEi",
            "__ZN6google8protobuf2io25CopyingInputStreamAdaptorD2Ev",
            "_ggml_threadpool_free",
            "__ZN4absl12lts_2024072219str_format_internal9SummarizeENS1_21UntypedFormatSpecImplENS0_4SpanIKNS1_13FormatArgImplEEE",
            "__ZNK4absl12lts_2024072224synchronization_internal13KernelTimeout20InNanosecondsFromNowEv",
            "_ggml_backend_tensor_copy",
            "__ZN4absl12lts_2024072213time_internal4cctz9time_zone4ImplC1Ev",
            "_ggml_new_graph",
            "__ZN6google8protobuf8internal14WireFormatLite18WriteSFixed32ArrayEPKiiPNS0_2io17CodedOutputStreamE",
            "__ZN13sentencepiece26ImmutableSentencePieceTextD2Ev",
            "__ZN4absl12lts_2024072212IDivDurationENS0_8DurationES1_PS1_",
            "__ZN13sentencepiece22NBestSentencePieceText21CheckTypeAndMergeFromERKN6google8protobuf11MessageLiteE",
            "__ZN6google8protobuf8internal12ExtensionSet19SetAllocatedMessageEihPKNS0_15FieldDescriptorEPNS0_11MessageLiteE",
            "__ZN4absl12lts_2024072213time_internal4cctz10TimeZoneIfD0Ev",
            "__ZNK6google8protobuf8internal15ThreadSafeArena14SpaceAllocatedEv",
            "__ZNK4absl12lts_2024072224synchronization_internal13KernelTimeout15MakeAbsTimespecEv",
            "__ZN28qvac_lib_inference_addon_cpp5AddonIN35qvac_lib_inference_addon_mlc_marian16TranslationModelEEC2IJP8js_env_sNSt3__117reference_wrapperIKNS7_12basic_stringIcNS7_11char_traitsIcEENS7_9allocatorIcEEEEEEP10js_value_sSI_SI_EEEDpT_",
            "__ZN6google8protobuf8internal32StringSpaceUsedExcludingSelfLongERKNSt3__112basic_stringIcNS2_11char_traitsIcEENS2_9allocatorIcEEEE",
            "__ZN6google8protobuf17FastInt64ToBufferExPc",
            "__ZN6google8protobuf8internal6IsNullILi9EEEbPKv",
            "__ZN6google8protobuf8internal14WireFormatLite9ReadBytesEPNS0_2io16CodedInputStreamEPNSt3__112basic_stringIcNS6_11char_traitsIcEENS6_9allocatorIcEEEE",
            "_ggml_compute_forward_diag",
            "__ZN6google8protobuf8internal12ExtensionSet16SetRepeatedFloatEiif",
            "_ggml_compute_forward_rms_norm_back",
            "_ggml_group_norm",
            "__ZN6google8protobuf8internal15ThreadSafeArena14InitializeFromEPvm",
            "_ggml_compute_forward_leaky_relu",
            "_ggml_soft_max_ext_back",
            "__ZN13sentencepiece4util6StatusC2ENS0_10StatusCodeEN4absl12lts_2024072211string_viewE",
            "__ZN6google8protobuf7CEscapeERKNSt3__112basic_stringIcNS1_11char_traitsIcEENS1_9allocatorIcEEEE",
            "_ggml_compute_forward_argmax",
            "__ZNK6google8protobuf8internal12ExtensionSet9Extension7GetSizeEv",
            "__ZN4absl12lts_2024072216strings_internal18ApplySubstitutionsENS0_11string_viewEPNSt3__16vectorINS1_18ViableSubstitutionENS3_9allocatorIS5_EEEEPNS3_12basic_stringIcNS3_11char_traitsIcEENS6_IcEEEE",
            "__ZNK6google8protobuf11MessageLite32SerializePartialToFileDescriptorEi",
            "__ZN4absl12lts_2024072218container_internal19HashSetResizeHelper35GrowSizeIntoSingleGroupTransferableERNS1_12CommonFieldsEm",
            "__ZN6google8protobuf2io18IstreamInputStream6BackUpEi",
            "__ZN4absl12lts_2024072219str_format_internal17FormatConvertImplEcNS1_24FormatConversionSpecImplEPNS1_14FormatSinkImplE",
            "__ZNK4absl12lts_2024072218container_internal33CommonFieldsGenerationInfoEnabled39should_rehash_for_bug_detection_on_moveEPKNS1_6ctrl_tEm",
            "__ZN6google8protobuf2io19LimitingInputStream4SkipEi",
            "__ZN6google8protobuf8internal20PackedSFixed64ParserEPvPKcPNS1_12ParseContextE",
            "__ZNK6google8protobuf8internal12ExtensionSet17GetRepeatedUInt32Eii",
            "__ZN13sentencepiece19SelfTestData_SampleD0Ev",
            "__ZN6google8protobuf8internal12ExtensionSet16SetRepeatedInt64Eiix",
            "_ggml_is_contiguous_channels",
            "__ZN4absl12lts_2024072214flags_internal7UnparseENS0_7uint128E",
            "_ggml_cpu_has_llamafile",
            "__ZN13sentencepiece17SentencePieceText5ClearEv",
            "__ZN13sentencepiece19SelfTestData_SampleC2EPN6google8protobuf5ArenaEb",
            "_ggml_neg",
            "_ggml_get_f32_nd",
            "__ZN6google8protobuf2io15FileInputStreamC1Eii",
            "__ZN4absl12lts_2024072213ToChronoHoursENS0_8DurationE",
            "__ZN6google8protobuf2io19LimitingInputStreamD2Ev",
            "__ZN35qvac_lib_inference_addon_mlc_marian15destroyInstanceEP8js_env_sP18js_callback_info_s",
            "_ggml_new_tensor_4d",
            "_ggml_cpu_extra_work_size",
            "_ggml_backend_buffer_free",
            "__ZN13sentencepiece31ImmutableNBestSentencePieceText13mutable_protoEv",
            "__ZN6google8protobuf8internal20RepeatedPtrFieldBase18AddOutOfLineHelperEPv",
            "__ZN6google8protobuf8internal10LogMessageC2ENS0_8LogLevelEPKci",
            "_quantize_row_iq4_nl",
            "__ZN6google8protobuf2io24ConcatenatingInputStreamC1EPKPNS1_19ZeroCopyInputStreamEi",
            "__ZN13sentencepiece10filesystem15NewWritableFileEN4absl12lts_2024072211string_viewEb",
            "__ZN6google8protobuf13SetLogHandlerEPFvNS0_8LogLevelEPKciRKNSt3__112basic_stringIcNS4_11char_traitsIcEENS4_9allocatorIcEEEEE",
            "__ZNK4absl12lts_2024072214flags_internal8FlagImpl24IsSpecifiedOnCommandLineEv",
            "__ZN13sentencepiece12SelfTestDataD1Ev",
            "__ZN4absl12lts_2024072220ToChronoMillisecondsENS0_8DurationE",
            "_ggml_compute_forward_im2col_back_f32",
            "_ggml_backend_event_free",
            "__Z29nmt_init_with_params_no_stateP16nmt_model_loader18nmt_context_params",
            "__ZN4absl12lts_2024072219ReleasableMutexLock7ReleaseEv",
            "__ZN4absl12lts_2024072213time_internal4cctz12TimeZoneInfo3UTCEv",
            "_ggml_type_size",
            "_ggml_cpu_has_avx",
            "__ZN4absl12lts_202407227CondVar9SignalAllEv",
            "__ZN4absl12lts_202407228DurationmLEx",
            "__ZN4absl12lts_2024072213base_internal23ThrowStdBadFunctionCallEv",
            "__ZN4absl12lts_202407229StrAppendEPNSt3__112basic_stringIcNS1_11char_traitsIcEENS1_9allocatorIcEEEERKNS0_8AlphaNumE",
            "__ZN6google8protobuf2io16FileOutputStreamC2Eii",
            "__ZNK4absl12lts_2024072211string_view17find_first_not_ofEcm",
            "__ZN13sentencepiece22SentencePieceProcessor4LoadERKNS_10ModelProtoE",
            "__ZN6google8protobuf8internal17UnknownFieldParseEjPNSt3__112basic_stringIcNS2_11char_traitsIcEENS2_9allocatorIcEEEEPKcPNS1_12ParseContextE",
            "__ZN6google8protobuf8internal14WireFormatLite14WriteBoolArrayEPKbiPNS0_2io17CodedOutputStreamE",
            "_ggml_op_desc",
            "__ZN6google8protobuf6StrCatERKNS0_7strings8AlphaNumES4_S4_S4_S4_S4_S4_",
            "__ZN4ggml3cpu6repack4gemmI12block_iq4_nlLx4ELx4EL9ggml_type8EEEviPfmPKvS7_ii",
            "__ZN4absl12lts_2024072223FindLongestCommonSuffixENS0_11string_viewES1_",
            "__ZN6google8protobuf8internal10LogMessagelsEm",
            "__ZN6google8protobuf20Base64EscapeInternalEPKhiPciPKcb",
            "__ZN4absl12lts_2024072213hash_internal15MixingHashState28CombineLargeContiguousImpl64EyPKhm",
            "__ZNK4absl12lts_2024072213time_internal4cctz9time_zone14effective_implEv",
            "__ZN4absl12lts_202407225Mutex14LockWhenCommonERKNS0_9ConditionENS0_24synchronization_internal13KernelTimeoutEb",
            "__ZN6google8protobuf4util15status_internal13IsUnavailableERKNS2_6StatusE",
            "__ZNK13sentencepiece10ModelProto13IsInitializedEv",
            "__ZN13sentencepiece2io14SaveModelProtoEN4absl12lts_2024072211string_viewERKNS_10ModelProtoE",
            "_ggml_backend_cpu_buffer_type",
            "__ZN4ggml3cpu6repack4gemvI12block_iq4_nlLx4ELx4EL9ggml_type8EEEviPfmPKvS7_ii",
            "_ggml_op_name",
            "_dequantize_row_iq3_s",
            "__ZNK13sentencepiece22SentencePieceProcessor9IsControlEi",
            "__ZN6google8protobuf11MessageLite20MergeFromCodedStreamEPNS0_2io16CodedInputStreamE",
            "_ggml_add_cast",
            "_ggml_backend_buffer_get_alignment",
            "__ZNK13sentencepiece11TrainerSpec12ByteSizeLongEv",
            "_ggml_sqr",
            "__ZN6google8protobuf11MessageLite23ParseFromZeroCopyStreamEPNS0_2io19ZeroCopyInputStreamE",
            "__ZNK6google8protobuf8internal12ExtensionSet9Extension44InternalSerializeFieldWithCachedSizesToArrayEPKNS0_11MessageLiteEPKS2_iPhPNS0_2io19EpsCopyOutputStreamE",
            "_ggml_compute_forward_timestep_embedding",
            "__ZN4absl12lts_2024072218container_internal13EraseMetaOnlyERNS1_12CommonFieldsEmm",
            "__ZN6google8protobuf2io16CodedInputStream11ReadTagSlowEv",
            "__ZN13sentencepiece14NormalizerSpec14_InternalParseEPKcPN6google8protobuf8internal12ParseContextE",
            "__ZN13sentencepiece24ModelProto_SentencePieceD0Ev",
            "_ggml_compute_forward_upscale",
            "_quantize_row_tq1_0_ref",
            "_iq2xs_init_impl",
            "__ZN4absl12lts_2024072213time_internal4cctz15fixed_time_zoneERKNSt3__16chrono8durationIxNS3_5ratioILl1ELl1EEEEE",
            "__ZN4absl12lts_202407228DurationdVEx",
            "__ZN6google8protobuf8internal12ExtensionSet17MaybeNewExtensionEiPKNS0_15FieldDescriptorEPPNS2_9ExtensionE",
            "_quantize_row_tq2_0",
            "__ZNK4absl12lts_2024072218container_internal19HashSetResizeHelper43GrowIntoSingleGroupShuffleTransferableSlotsEPvm",
            "__ZNK6google8protobuf2io18StringOutputStream9ByteCountEv",
            "__ZN4absl12lts_202407229ConditionC1EPFbPvES2_",
            "__ZN13sentencepiece34ModelProto_SentencePiece_Type_NameENS_29ModelProto_SentencePiece_TypeE",
            "__ZN4absl12lts_2024072224synchronization_internal12PerThreadSem23SetThreadBlockedCounterEPNSt3__16atomicIiEE",
            "__ZN4absl12lts_2024072213base_internal19ThrowStdLengthErrorERKNSt3__112basic_stringIcNS2_11char_traitsIcEENS2_9allocatorIcEEEE",
            "_ggml_repeat_back",
            "_ggml_gelu",
            "_ggml_map_custom2",
            "_ggml_backend_dev_name",
            "__ZN6google8protobuf8internal14WireFormatLite10WriteFloatEifPNS0_2io17CodedOutputStreamE",
            "_ggml_vec_dot_iq2_xxs_q8_K",
            "__ZN4absl12lts_2024072213ToDoubleHoursENS0_8DurationE",
            "__ZN6google8protobuf8internal14WireFormatLite9Int32SizeERKNS0_13RepeatedFieldIiEE",
            "_ggml_backend_sched_reserve",
            "_ggml_backend_sched_new",
            "_ggml_rms_norm",
            "__ZN13sentencepiece17SentencePieceTextC2EPN6google8protobuf5ArenaEb",
            "__ZNK6google8protobuf8internal12ExtensionSet19GetRawRepeatedFieldEiPKv",
            "__ZN6google8protobuf8internal11SerialArena16AllocateNewBlockEmPKNS1_16AllocationPolicyE",
            "_ggml_compute_forward_map_custom3",
            "__ZN6google8protobuf11safe_strtodEPKcPd",
            "_ggml_hash_set_free",
            "__ZNK4absl12lts_202407226ByChar4FindENS0_11string_viewEm",
            "__ZNK4absl12lts_2024072213time_internal4cctz9time_zone7versionEv",
            "__ZN13sentencepiece7unigram7LatticeD2Ev",
            "__ZNK13sentencepiece26ImmutableSentencePieceText4textEv",
            "__ZN13sentencepiece26ImmutableSentencePieceTextC1ERKNS_17SentencePieceTextE",
            "__ZN13sentencepiece4util6Status11IgnoreErrorEv",
            "__ZN4absl12lts_2024072213base_internal16ThrowStdBadAllocEv",
            "__ZN35qvac_lib_inference_addon_mlc_marian6appendEP8js_env_sP18js_callback_info_s",
            "__ZN4absl12lts_2024072224synchronization_internal13PthreadWaiter19InternalCondVarPokeEv",
            "_quantize_q8_0",
            "_ggml_vec_dot_iq1_m_q8_K_generic",
            "__ZNK4absl12lts_2024072214flags_internal8FlagImpl4NameEv",
            "__ZNK6google8protobuf8internal12ExtensionSet20GetRefRepeatedUInt64Eii",
            "__ZN4absl12lts_2024072221StrContainsIgnoreCaseENS0_11string_viewES1_",
            "_ggml_gemm_q4_0_8x8_q8_0",
            "__ZNK4absl12lts_2024072219str_format_internal16ParsedFormatBase18MatchesConversionsEbSt16initializer_listINS0_23FormatConversionCharSetEE",
            "_ggml_flash_attn_ext_get_prec",
            "__ZNK6google8protobuf2io17ArrayOutputStream9ByteCountEv",
            "__ZN4absl12lts_2024072219str_format_internal10FormatPackENS1_21UntypedFormatSpecImplENS0_4SpanIKNS1_13FormatArgImplEEE",
            "__ZN6google8protobuf8internal12ExtensionSet14ReleaseMessageEiRKNS0_11MessageLiteE",
            "__ZN6google8protobuf8internal12ExtensionSet10ParseFieldEyPKcPKNS0_11MessageLiteEPNS1_16InternalMetadataEPNS1_12ParseContextE",
            "_ggml_compute_forward_rwkv_wkv6",
            "_quantize_q3_K",
            "__ZN4absl12lts_2024072218container_internal15EmptyGenerationEv",
            "__ZNK13sentencepiece10normalizer13PrefixMatcher13GlobalReplaceEN4absl12lts_2024072211string_viewES4_",
            "__ZN13sentencepiece12SelfTestData5ClearEv",
            "__ZN13sentencepiece10normalizer10Normalizer25DecodePrecompiledCharsMapEN4absl12lts_2024072211string_viewEPS4_S5_PNSt3__112basic_stringIcNS6_11char_traitsIcEENS6_9allocatorIcEEEE",
            "__ZN6google8protobuf8internal18PackedSInt64ParserEPvPKcPNS1_12ParseContextE",
            "__ZN6google8protobuf8internal12ParseContext28ReadSizeAndPushLimitAndDepthEPKcPi",
            "_ggml_get_rows_back",
            "__ZN6google8protobuf16strtou32_adaptorEPKcPPci",
            "__ZN4absl12lts_2024072218EndsWithIgnoreCaseENS0_11string_viewES1_",
            "_ggml_get_f32_1d",
            "__ZN13sentencepiece11string_util17UnicodeTextToUTF8ERKNSt3__16vectorIjNS1_9allocatorIjEEEE",
            "__ZN4absl12lts_2024072214flags_internal7UnparseEb",
            "__ZN6google8protobuf2io19OstreamOutputStream26CopyingOstreamOutputStreamD1Ev",
            "__ZNK13sentencepiece31ImmutableNBestSentencePieceText6nbestsEi",
            "_ggml_backend_sched_get_n_backends",
            "__ZN13sentencepiece14NormalizerSpecC2ERKS0_",
            "__ZN4absl12lts_2024072214flags_internal8FlagImpl4InitEv",
            "_ggml_silu_inplace",
            "__ZN6google8protobuf8internal12ExtensionSet26UnsafeShallowSwapExtensionEPS2_i",
            "__ZNK13sentencepiece14ModelInterface9pad_pieceEv",
            "__ZNK4absl12lts_2024072213time_internal4cctz9time_zone15prev_transitionERKNSt3__16chrono10time_pointINS5_12system_clockENS5_8durationIxNS4_5ratioILl1ELl1EEEEEEEPNS3_16civil_transitionE",
            "_ggml_backend_event_synchronize",
            "__ZNK6google8protobuf8internal12ExtensionSet20GetRefRepeatedUInt32Eii",
            "__ZN6google8protobuf2io16CodedInputStreamD2Ev",
            "__ZN4absl12lts_2024072214flags_internal7UnparseEj",
            "__ZN13sentencepiece22SentencePieceProcessor23LoadFromSerializedProtoEN4absl12lts_2024072211string_viewE",
            "__ZN6google8protobuf19WebSafeBase64EscapeEPKhiPNSt3__112basic_stringIcNS3_11char_traitsIcEENS3_9allocatorIcEEEEb",
            "_ggml_backend_graph_compute_async",
            "_ggml_vec_dot_q6_K_q8_K",
            "_ggml_cross_entropy_loss_back",
            "_ggml_compute_forward_rope",
            "__ZN4absl12lts_2024072224synchronization_internal13PthreadWaiterC1Ev",
            "__ZN6google8protobuf4util15status_internal6StatusaSERKS3_",
            "__ZN6google8protobuf8internal12ExtensionSet30UnsafeArenaSetAllocatedMessageEihPKNS0_15FieldDescriptorEPNS0_11MessageLiteE",
            "__ZNK6google8protobuf11MessageLite23SerializePartialToArrayEPvi",
            "__ZN4absl12lts_2024072213base_internal20ThrowStdRuntimeErrorERKNSt3__112basic_stringIcNS2_11char_traitsIcEENS2_9allocatorIcEEEE",
            "__ZN13sentencepiece4util6StatusaSERKS1_",
            "__ZN4absl12lts_2024072214flags_internal18FlagStateInterfaceD1Ev",
            "_ggml_backend_get_default_buffer_type",
            "__ZN6google8protobuf4util15status_internal18AlreadyExistsErrorENS0_20stringpiece_internal11StringPieceE",
            "__ZN6google8protobuf8internal14WireFormatLite9Int64SizeERKNS0_13RepeatedFieldIxEE",
            "__ZN4absl12lts_202407225Mutex10UnlockSlowEPNS0_15SynchWaitParamsE",
            "_ggml_conv_1d_dw_ph",
            "__ZN6google8protobuf12Base64EscapeENS0_20stringpiece_internal11StringPieceEPNSt3__112basic_stringIcNS3_11char_traitsIcEENS3_9allocatorIcEEEE",
            "_ggml_get_tensor",
            "_ggml_compute_forward_opt_step_adamw",
            "__ZN6google8protobuf8internal15ThreadSafeArenaD1Ev",
            "__ZN4absl12lts_2024072213hash_internal10CityHash64EPKcm",
            "__ZNK6google8protobuf8internal12ExtensionSet13ExtensionSizeEi",
            "_ggml_fopen",
            "__ZN6google8protobuf7strings8AlphaNumC1ENS1_3HexE",
            "__ZN6google8protobuf4util15status_internal14CancelledErrorENS0_20stringpiece_internal11StringPieceE",
            "_bare_register_module_v0",
            "_ggml_backend_cpu_buffer_from_ptr",
            "_ggml_group_norm_inplace",
            "_ggml_print_objects",
            "_ggml_get_i32_nd",
            "_ggml_compute_forward_sum_rows",
            "__ZN13sentencepiece10ModelProtoC1ERKS0_",
            "_ggml_compute_forward_log",
            "__ZN13sentencepiece26ImmutableSentencePieceTextD1Ev",
            "__ZNK4absl12lts_2024072213time_internal4cctz12TimeZoneInfo7VersionEv",
            "_dequantize_row_tq2_0",
            "__ZN13sentencepiece4util6Status17set_error_messageEPKc",
            "_ggml_threadpool_chunk_set",
            "_ggml_backend_cpu_set_threadpool",
            "__ZNK6google8protobuf8internal12ExtensionSet15GetRepeatedBoolEii",
            "__ZN13sentencepiece11TrainerSpecC2ERKS0_",
            "__ZNK13sentencepiece22SentencePieceProcessor9NormalizeEN4absl12lts_2024072211string_viewE",
            "_ggml_compute_forward_reshape",
            "_ggml_sin",
            "__ZNK6google8protobuf8internal12ExtensionSet11GetRefInt32EiRKi",
            "__ZN13sentencepiece14ModelInterfaceD2Ev",
            "__ZN6google8protobuf8internal11SerialArena23AllocateAlignedFallbackEmPKNS1_16AllocationPolicyE",
            "__ZNK13sentencepiece49ImmutableSentencePieceText_ImmutableSentencePiece3endEv",
            "__ZN4ggml3cpu6repack4gemvI10block_q4_0Lx8ELx8EL9ggml_type8EEEviPfmPKvS7_ii",
            "__ZN4absl12lts_202407229ByAnyCharC2ENS0_11string_viewE",
            "_ggml_vec_dot_q3_K_q8_K_generic",
            "__ZN6google8protobuf2io25CopyingInputStreamAdaptor10FreeBufferEv",
            "_ggml_are_same_shape",
            "__ZN6google8protobuf8internal19ImplicitWeakMessage14_InternalParseEPKcPNS1_12ParseContextE",
            "__ZN6google8protobuf4util15status_internal9IsAbortedERKNS2_6StatusE",
            "_ggml_is_contiguous_1",
            "_ggml_nrows",
            "__ZN4absl12lts_2024072211UnparseFlagENS0_8DurationE",
            "__ZN4absl12lts_2024072213time_internal4cctz9time_zone4ImplC2Ev",
            "_ggml_backend_dev_init",
            "__ZN6google8protobuf8internal12ExtensionSet23MutableRawRepeatedFieldEihbPKNS0_15FieldDescriptorE",
            "__ZN13sentencepiece10normalizer13PrefixMatcherC2ERKNSt3__13setIN4absl12lts_2024072211string_viewENS2_4lessIS6_EENS2_9allocatorIS6_EEEE",
            "__ZN6google8protobuf12safe_strto32ERKNSt3__112basic_stringIcNS1_11char_traitsIcEENS1_9allocatorIcEEEEPi",
            "_ggml_time_us",
            "__ZN6google8protobuf13FloatToBufferEfPc",
            "__ZN13sentencepiece31ImmutableNBestSentencePieceText21ConvertToUnicodeSpansEv",
            "__ZN6google8protobuf2io25CopyingInputStreamAdaptor6BackUpEi",
            "__ZN6google8protobuf23ShutdownProtobufLibraryEv",
            "__ZN4absl12lts_2024072213time_internal4cctz9time_zone4Impl7UTCImplEv",
            "_ggml_is_numa",
            "__ZNK13sentencepiece22SentencePieceProcessor12GetPieceSizeEv",
            "__ZN6google8protobuf5Arena18CreateMaybeMessageIN13sentencepiece31SentencePieceText_SentencePieceEJEEEPT_PS1_DpOT0_",
            "__ZN13sentencepiece10ModelProtoD2Ev",
            "__Z19ggml_quantize_mat_tILx4EL9ggml_type8EEvPKfPvxx",
            "_ggml_silu",
            "__ZN4absl12lts_2024072213time_internal4cctz10TimeZoneIf4MakeERKNSt3__112basic_stringIcNS4_11char_traitsIcEENS4_9allocatorIcEEEE",
            "_ggml_backend_sched_get_n_splits",
            "_ggml_add1_inplace",
            "_ggml_compute_forward_conv_transpose_2d",
            "_ggml_backend_sched_free",
            "_ggml_fp32_to_fp16_row",
            "__ZN6google8protobuf8internal14WireFormatLite9WriteEnumEiiPNS0_2io17CodedOutputStreamE",
            "__ZN6google8protobuf6StrCatERKNS0_7strings8AlphaNumES4_S4_S4_S4_S4_S4_S4_S4_",
            "_ggml_get_data",
            "__ZN6google8protobuf8internal18GenericTypeHandlerINSt3__112basic_stringIcNS3_11char_traitsIcEENS3_9allocatorIcEEEEE5MergeERKS9_PS9_",
            "_ggml_mul_mat",
            "__ZN13sentencepiece12SelfTestData9MergeFromERKS0_",
            "__ZN4absl12lts_2024072219str_format_internal17FormatConvertImplEiNS1_24FormatConversionSpecImplEPNS1_14FormatSinkImplE",
            "_ggml_vec_dot_q8_0_q8_0",
            "__ZN6google8protobuf15StripWhitespaceEPNSt3__112basic_stringIcNS1_11char_traitsIcEENS1_9allocatorIcEEEE",
            "_ggml_backend_buft_get_alignment",
            "__ZN6google8protobuf8internal13DestroyStringEPKv",
            "_ggml_graph_get_tensor",
            "__ZNK4absl12lts_2024072211string_view16find_last_not_ofES1_m",
            "__ZN6google8protobuf8internal23SerializeMessageNoTableEPKNS0_11MessageLiteEPNS0_2io17CodedOutputStreamE",
            "__ZNK6google8protobuf2io19OstreamOutputStream9ByteCountEv",
            "__ZN4absl12lts_2024072219str_format_internal32ConsumeUnboundConversionNoInlineEPKcS3_PNS1_17UnboundConversionEPi",
            "__ZNK6google8protobuf20stringpiece_internal11StringPiece13find_first_ofES2_m",
            "_quantize_q4_0",
            "__ZN6google8protobuf8internal16PackedBoolParserEPvPKcPNS1_12ParseContextE",
            "__ZN13sentencepiece24ModelProto_SentencePiece12InternalSwapEPS0_",
            "__ZN13sentencepiece17SentencePieceTextD1Ev",
            "__ZN6google8protobuf2io19EpsCopyOutputStream30WriteStringMaybeAliasedOutlineEjRKNSt3__112basic_stringIcNS3_11char_traitsIcEENS3_9allocatorIcEEEEPh",
            "__ZN13sentencepiece12SelfTestDataD0Ev",
            "__ZN4absl12lts_2024072213base_internal26ClearCurrentThreadIdentityEv",
            "__ZN4absl12lts_202407225Mutex5BlockEPNS0_13base_internal14PerThreadSynchE",
            "__ZN4absl12lts_2024072216SetStackUnwinderEPFiPPvPiiiPKvS3_E",
            "_ggml_backend_guid",
            "__ZNK13sentencepiece31SentencePieceText_SentencePiece13IsInitializedEv",
            "_ggml_backend_buffer_get_alloc_size",
            "__ZN4absl12lts_2024072218container_internal37ConvertDeletedToEmptyAndFullToDeletedEPNS1_6ctrl_tEm",
            "__ZN6google8protobuf8internal15ThreadSafeArena11CleanupListEv",
            "__ZN6google8protobuf2io19LimitingInputStreamC1EPNS1_19ZeroCopyInputStreamEx",
            "_ggml_compute_forward_sub",
            "__ZNK6google8protobuf8internal12ExtensionSet7GetEnumEii",
            "_ggml_diag_mask_zero_inplace",
            "__ZN13sentencepiece24ModelProto_SentencePieceC2ERKS0_",
            "__ZN6google8protobuf11MessageLite16ParseFromIstreamEPNSt3__113basic_istreamIcNS2_11char_traitsIcEEEE",
            "__ZNK4absl12lts_2024072214flags_internal13MaskedPointer9CheckMaskEm",
            "_ggml_win_part",
            "__ZN13sentencepiece7unigram7LatticeD0Ev",
            "__ZN6google8protobuf2io16CodedInputStream16ReadVarint32SlowEPj",
            "__ZN6google8protobuf8internal24InlineGreedyStringParserEPNSt3__112basic_stringIcNS2_11char_traitsIcEENS2_9allocatorIcEEEEPKcPNS1_12ParseContextE",
            "__ZN4absl12lts_2024072213base_internal21ThrowStdOverflowErrorEPKc",
            "__ZN6google8protobuf8internal14WireFormatLite16WriteDoubleArrayEPKdiPNS0_2io17CodedOutputStreamE",
            "__ZN6google8protobuf20stringpiece_internal11StringPiece14ConsumeFromEndES2_",
            "_ggml_diag_mask_inf",
            "__ZNK13sentencepiece22SentencePieceProcessor9IsUnknownEi",
            "__ZNK4absl12lts_2024072214flags_internal8FlagImpl33CheckDefaultValueParsingRoundtripEv",
            "__ZN6google8protobuf4util15status_internal6StatusC2ERKS3_",
            "__ZN13sentencepiece19SelfTestData_Sample21CheckTypeAndMergeFromERKN6google8protobuf11MessageLiteE",
            "__ZN6google8protobuf8internal12ExtensionSet9AddUInt32EihbjPKNS0_15FieldDescriptorE",
            "__ZN6google8protobuf8internal11SerialArena34AllocateAlignedWithCleanupFallbackEmPKNS1_16AllocationPolicyE",
            "__ZN4absl12lts_2024072219str_format_internal17FormatConvertImplEsNS1_24FormatConversionSpecImplEPNS1_14FormatSinkImplE",
            "__ZN35qvac_lib_inference_addon_mlc_marian8activateEP8js_env_sP18js_callback_info_s",
            "__ZN6google8protobuf8internal6IsNullILi12EEEbPKv",
            "__ZN4absl12lts_2024072213time_internal4cctz10TimeZoneIfD1Ev",
            "_ggml_new_tensor",
            "_quantize_row_q2_K_ref",
            "__ZN6google8protobuf8internal12ExtensionSet8SetInt64EihxPKNS0_15FieldDescriptorE",
            "_dequantize_row_q5_0",
            "__ZN6google8protobuf8internal16InternalMetadata15CheckedDestructEv",
            "__ZN13sentencepiece7unigram7Lattice5ClearEv",
            "_ggml_tallocr_new",
            "__ZN6google8protobuf12safe_strto64ERKNSt3__112basic_stringIcNS1_11char_traitsIcEENS1_9allocatorIcEEEEPx",
            "_ggml_roll",
            "__ZN6google8protobuf8internal18EpsCopyInputStream20AppendStringFallbackEPKciPNSt3__112basic_stringIcNS5_11char_traitsIcEENS5_9allocatorIcEEEE",
            "__ZNK6google8protobuf8internal12ExtensionSet18GetRepeatedMessageEii",
            "__ZN6google8protobuf2io19LimitingInputStreamD1Ev",
            "__ZNK4absl12lts_202407228ByLength4FindENS0_11string_viewEm",
            "__ZN6google8protobuf6StrCatERKNS0_7strings8AlphaNumES4_S4_S4_S4_S4_S4_S4_",
            "__ZN4absl12lts_202407228ByLengthC1El",
            "__ZN4absl12lts_2024072213time_internal4cctz10TimeZoneIf3UTCEv",
            "_ggml_vec_dot_q8_0_q8_0_generic",
            "_ggml_backend_sched_set_tensor_backend",
            "__ZN4absl12lts_2024072214flags_internal13AbslParseFlagENS0_11string_viewEPtPNSt3__112basic_stringIcNS4_11char_traitsIcEENS4_9allocatorIcEEEE",
            "_ggml_gemv_q4_K_8x8_q8_K_generic",
            "__ZNK6google8protobuf2io18IstreamInputStream9ByteCountEv",
            "__ZN6google8protobuf2io16FileOutputStream23CopyingFileOutputStreamD0Ev",
            "__ZN13sentencepiece10ModelProtoC1EPN6google8protobuf5ArenaEb",
            "__ZN13sentencepiece4util6StatusC2Ev",
            "_ggml_cpu_has_avx512_vbmi",
            "_ggml_backend_reg_name",
            "__ZN6google8protobuf10SimpleItoaEl",
            "__ZN4absl12lts_2024072214flags_internal19NumLeakedFlagValuesEv",
            "_ggml_vec_dot_tq1_0_q8_K_generic",
            "_ggml_rope_ext_back",
            "__ZN4absl12lts_2024072218container_internal17ClearBackingArrayERNS1_12CommonFieldsERKNS1_15PolicyFunctionsEbb",
            "_ggml_backend_load_all",
            "__ZNK6google8protobuf4util15status_internal6Status8ToStringEv",
            "__ZN13sentencepiece19SelfTestData_SampleC2ERKS0_",
            "__ZN4ggml3cpu6repack6repackI10block_q4_0Lx8ELx8EEEiP11ggml_tensorPKvm",
            "__ZNK4absl12lts_2024072213time_internal4cctz12TimeZoneLibC7VersionEv",
            "_quantize_row_q6_K",
            "__ZNK4absl12lts_2024072211string_view17find_first_not_ofES1_m",
            "__ZN6google8protobuf5Arena21AllocateAlignedNoHookEm",
            "_ggml_time_init",
            "__ZN4absl12lts_202407225Mutex17DecrementSynchSemEPS1_PNS0_13base_internal14PerThreadSynchENS0_24synchronization_internal13KernelTimeoutE",
            "__ZN6google8protobuf8internal19ExtensionSerializerEPKNS0_11MessageLiteEPKhjjjPNS0_2io17CodedOutputStreamE",
            "_ggml_compute_forward_gla",
            "__ZN4absl12lts_202407225Mutex10ReaderLockEv",
            "_ggml_compute_forward_flash_attn_ext",
            "__ZN6google8protobuf8internal17PrintUTF8ErrorLogENS0_20stringpiece_internal11StringPieceES3_PKcb",
            "__ZN35qvac_lib_inference_addon_mlc_marian6reloadEP8js_env_sP18js_callback_info_s",
            "__ZNK6google8protobuf20stringpiece_internal11StringPiece12find_last_ofES2_m",
            "__ZN6google8protobuf2io15FileInputStreamC2Eii",
            "__ZN6google8protobuf8internal23GetOwnedMessageInternalEPNS0_5ArenaEPNS0_11MessageLiteES3_",
            "_ggml_cpu_get_sve_cnt",
            "_ggml_vec_dot_q5_K_q8_K_generic",
            "_ggml_cpu_has_ssse3",
            "__ZNK4absl12lts_2024072213time_internal4cctz9time_zone6lookupERKNS2_6detail10civil_timeINS4_10second_tagEEE",
            "__ZN4absl12lts_2024072216numbers_internal18safe_strto128_baseENS0_11string_viewEPNS0_6int128Ei",
            "__ZN4absl12lts_2024072214flags_internal8FlagImpl12RestoreStateERKNS1_9FlagStateE",
            "__ZNK4absl12lts_202407228TimeZone2AtENS0_4TimeE",
            "__Z35ggml_backend_cpu_repack_buffer_typev",
            "__ZN6google8protobuf2io19EpsCopyOutputStream4SkipEiPPh",
            "_ggml_backend_buffer_set_usage",
            "_ggml_is_vector",
            "__ZN4ggml3cpu6repack4gemvI10block_q4_0Lx8ELx4EL9ggml_type8EEEviPfmPKvS7_ii",
            "_quantize_row_q5_K_ref",
            "__ZNK13sentencepiece22SentencePieceProcessor20SampleEncodeAndScoreEN4absl12lts_2024072211string_viewEifbbPNSt3__16vectorINS4_4pairINS5_IiNS4_9allocatorIiEEEEfEENS7_ISA_EEEE",
            "_ggml_n_dims",
            "_quantize_iq4_nl",
            "__ZN4absl12lts_2024072213base_internal8SpinLock8SpinLoopEv",
            "__ZN4absl12lts_2024072219str_format_internal17FormatConvertImplENS0_11string_viewENS1_24FormatConversionSpecImplEPNS1_14FormatSinkImplE",
            "_ggml_exp",
            "_ggml_graph_compute_with_ctx",
            "__ZN13sentencepiece22NBestSentencePieceTextC1EPN6google8protobuf5ArenaEb",
            "__ZN4absl12lts_2024072218container_internal19HashSetResizeHelper20TransferSlotAfterSooERNS1_12CommonFieldsEm",
            "__ZN6google8protobuf8internal14ArenaStringPtr7ReleaseEv",
            "_ggml_conv_1d",
            "_ggml_blck_size",
            "__ZN6google8protobuf4util15status_internal21PermissionDeniedErrorENS0_20stringpiece_internal11StringPieceE",
            "_ggml_backend_dev_offload_op",
            "__ZN6google8protobuf2io18IstreamInputStream4NextEPPKvPi",
            "_quantize_row_iq4_nl_ref",
            "__ZN4absl12lts_2024072213hash_internal15MixingHashState28CombineLargeContiguousImpl32EyPKhm",
            "_ggml_backend_graph_plan_compute",
            "__ZNK6google8protobuf11MessageLite25SerializeToZeroCopyStreamEPNS0_2io20ZeroCopyOutputStreamE",
            "__ZN6google8protobuf16EncodeAsUTF8CharEjPc",
            "__ZN4absl12lts_2024072219SetFlagsUsageConfigENS0_16FlagsUsageConfigE",
            "__ZN4absl12lts_2024072219str_format_internal13BufferRawSink5WriteENS0_11string_viewE",
            "__ZNK4absl12lts_202407228TimeZone14PrevTransitionENS0_4TimeEPNS1_15CivilTransitionE",
            "__ZNK13sentencepiece22NBestSentencePieceText11GetTypeNameEv",
            "__ZN4absl12lts_202407229Condition19CallVoidPtrFunctionEPKS1_",
            "__ZN6google8protobuf8internal14WireFormatLite11WriteDoubleEidPNS0_2io17CodedOutputStreamE",
            "_quantize_row_iq3_s_ref",
            "_ggml_vec_dot_iq4_xs_q8_K_generic",
            "__ZN13sentencepiece31SentencePieceText_SentencePiece8CopyFromERKS0_",
            "__ZN6google8protobuf7ClosureD2Ev",
            "_ggml_threadpool_params_match",
            "_ggml_compute_forward_pad_reflect_1d",
            "__Z30nmt_init_from_file_with_paramsPKc18nmt_context_params",
            "__ZN4absl12lts_2024072219str_format_internal7FprintFEP7__sFILENS1_21UntypedFormatSpecImplENS0_4SpanIKNS1_13FormatArgImplEEE",
            "__ZNK4absl12lts_2024072215CommandLineFlag9IsRetiredEv",
            "__ZN6google8protobuf8internal12ExtensionSet9Extension5ClearEv",
            "_ggml_cpu_has_sme",
            "__ZN4absl12lts_2024072224synchronization_internal25OneTimeInitThreadIdentityEPNS0_13base_internal14ThreadIdentityE",
            "_quantize_row_q4_1_ref",
            "__ZN4absl12lts_2024072213base_internal13LowLevelAlloc4FreeEPv",
            "__ZN4absl12lts_2024072213hash_internal18CityHash64WithSeedEPKcmy",
            "_ggml_conv_1d_ph",
            "__ZN4absl12lts_2024072214flags_internal13MaskedPointerC1EPvb",
            "__ZN6google8protobuf23UTF8FirstLetterNumBytesEPKci",
            "__ZNK13sentencepiece22SentencePieceProcessor9PieceToIdEN4absl12lts_2024072211string_viewE",
            "__ZN6google8protobuf2io16CodedInputStream20ReadVarint64FallbackEv",
            "__ZN4absl12lts_2024072216numbers_internal17SixDigitsToBufferEdPc",
            "__ZNK4absl12lts_202407225Mutex16AssertReaderHeldEv",
            "__ZN6google8protobuf2io26CopyingOutputStreamAdaptor10FreeBufferEv",
            "_ggml_backend_dev_type",
            "__ZN6google8protobuf4util15status_internal10IsNotFoundERKNS2_6StatusE",
            "__ZNK13sentencepiece7unigram5Model12SampleEncodeEN4absl12lts_2024072211string_viewEf",
            "__ZNK13sentencepiece10ModelProto12ByteSizeLongEv",
            "_ggml_get_next_tensor",
            "_ggml_graph_overhead",
            "__ZNK4absl12lts_2024072224synchronization_internal13KernelTimeout16ToChronoDurationEv",
            "__ZN6google8protobuf2io15FileInputStream22CopyingFileInputStream4SkipEi",
            "__ZN4absl12lts_2024072213StrReplaceAllENS0_11string_viewESt16initializer_listINSt3__14pairIS1_S1_EEE",
            "__ZNK6google8protobuf11MessageLite16SerializeToArrayEPvi",
            "_dequantize_row_q8_0",
            "__ZNK4absl12lts_2024072213time_internal4cctz9time_zone15next_transitionERKNSt3__16chrono10time_pointINS5_12system_clockENS5_8durationIxNS4_5ratioILl1ELl1EEEEEEEPNS3_16civil_transitionE",
            "_ggml_graph_overhead_custom",
            "__ZN6google8protobuf2io16CodedInputStream28BackUpInputToCurrentPositionEv",
            "_quantize_row_q4_K",
            "__ZN13sentencepiece22SentencePieceProcessor9LoadOrDieEN4absl12lts_2024072211string_viewE",
            "__ZN13sentencepiece4word5ModelD0Ev",
            "__ZN6google8protobuf2io19LimitingInputStreamD0Ev",
            "__ZN13sentencepiece49ImmutableSentencePieceText_ImmutableSentencePieceC2Ev",
            "_ggml_conv_2d_dw",
            "_ggml_set_zero",
            "__ZN6google8protobuf24UnescapeCEscapeSequencesEPKcPcPNSt3__16vectorINS4_12basic_stringIcNS4_11char_traitsIcEENS4_9allocatorIcEEEENS9_ISB_EEEE",
            "_ggml_vec_dot_q4_K_q8_K_generic",
            "_ggml_rope_yarn_corr_dims",
            "_ggml_vec_dot_q4_K_q8_K",
            "__ZNK13sentencepiece4util6Status13error_messageEv",
            "_ggml_backend_dev_host_buffer_type",
            "_ggml_backend_reg_by_name",
            "__ZN4absl12lts_2024072214flags_internal7UnparseEl",
            "__ZNK13sentencepiece22SentencePieceProcessor11model_protoEv",
            "_ggml_backend_reg_dev_get",
            "__ZN4absl12lts_2024072214flags_internal13MaskedPointerC2EPvb",
            "_ggml_compute_forward_exp",
            "_quantize_q4_K",
            "__ZN4absl12lts_2024072213base_internal19ThrowStdDomainErrorERKNSt3__112basic_stringIcNS2_11char_traitsIcEENS2_9allocatorIcEEEE",
            "__ZN4absl12lts_2024072213base_internal13LowLevelAlloc14AllocWithArenaEmPNS2_5ArenaE",
            "__ZN13sentencepiece4util6StatusC1Ev",
            "_ggml_threadpool_chunk_add",
            "_ggml_compute_forward_clamp",
            "__ZN6google8protobuf2io18IstreamInputStream25CopyingIstreamInputStreamD0Ev",
            "_ggml_get_data_f32",
            "_quantize_iq2_xxs",
            "__ZNK4absl12lts_2024072213time_internal4cctz12TimeZoneInfo16EquivTransitionsEhh",
            "__ZNK6google8protobuf2io16ArrayInputStream9ByteCountEv",
            "__ZN6google8protobuf2io17CodedOutputStreamD2Ev",
            "_ggml_vec_dot_q5_1_q8_1",
            "_ggml_vec_dot_q4_0_q8_0",
            "__ZNK13sentencepiece10normalizer10Normalizer9NormalizeEN4absl12lts_2024072211string_viewE",
            "__ZN4absl12lts_202407225Mutex6UnlockEv",
            "__ZN4absl12lts_2024072214flags_internal15DynValueDeleterC2EPFPvNS1_6FlagOpEPKvS3_S3_E",
            "__ZN13sentencepiece10ModelProto9_Internal17denormalizer_specEPKS0_",
            "_ggml_compute_forward_acc",
            "__ZN6google8protobuf8internal12ExtensionSet7SetBoolEihbPKNS0_15FieldDescriptorE",
            "_ggml_rwkv_wkv7",
            "__ZNK13sentencepiece22NBestSentencePieceText18_InternalSerializeEPhPN6google8protobuf2io19EpsCopyOutputStreamE",
            "__ZN13sentencepiece10ModelProto21CheckTypeAndMergeFromERKN6google8protobuf11MessageLiteE",
            "_quantize_row_q4_0_ref",
            "_ggml_backend_sched_reset",
            "__ZN6google8protobuf2io26CopyingOutputStreamAdaptorD0Ev",
            "_quantize_row_q5_1",
            "__ZNK13sentencepiece24ModelProto_SentencePiece12ByteSizeLongEv",
            "__ZN13sentencepiece10log_domain6LogSumERKNSt3__16vectorIdNS1_9allocatorIdEEEE",
            "__ZN4absl12lts_202407225Mutex6WakeupEPNS0_13base_internal14PerThreadSynchE",
            "_ggml_map_custom1_inplace",
            "__ZN4absl12lts_2024072219str_format_internal17FormatConvertImplENS1_7VoidPtrENS1_24FormatConversionSpecImplEPNS1_14FormatSinkImplE",
            "__ZN6google8protobuf8internal12ExtensionSet7SetEnumEihiPKNS0_15FieldDescriptorE",
            "_ggml_backend_compare_graph_backend",
            "__ZN13sentencepiece7unigram7Lattice11SetSentenceEN4absl12lts_2024072211string_viewE",
            "_ggml_cycles_per_ms",
            "_ggml_compute_forward_sqrt",
            "__ZN13sentencepiece26ImmutableSentencePieceText21ConvertToUnicodeSpansEv",
            "_quantize_row_tq1_0",
            "__ZN6google8protobuf10SimpleFtoaEf",
            "_ggml_flash_attn_ext",
            "__ZN4absl12lts_2024072219str_format_internal17FormatConvertImplERKNSt3__112basic_stringIcNS2_11char_traitsIcEENS2_9allocatorIcEEEENS1_24FormatConversionSpecImplEPNS1_14FormatSinkImplE",
            "_ggml_log",
            "__ZN6google8protobuf11JoinStringsERKNSt3__16vectorINS1_12basic_stringIcNS1_11char_traitsIcEENS1_9allocatorIcEEEENS6_IS8_EEEEPKcPS8_",
            "__ZN6google8protobuf9StrAppendEPNSt3__112basic_stringIcNS1_11char_traitsIcEENS1_9allocatorIcEEEERKNS0_7strings8AlphaNumESC_",
            "__ZN13sentencepiece31SentencePieceText_SentencePieceC1ERKS0_",
            "_ggml_compute_forward_set",
            "__ZN6google8protobuf2io24ConcatenatingInputStream4SkipEi",
            "__ZN13sentencepiece10ModelProtoD1Ev",
            "_ggml_new_i32",
            "_ggml_repeat",
            "__ZN4absl12lts_2024072213time_internal4cctz19FixedOffsetFromNameERKNSt3__112basic_stringIcNS3_11char_traitsIcEENS3_9allocatorIcEEEEPNS3_6chrono8durationIxNS3_5ratioILl1ELl1EEEEE",
            "_dequantize_row_q8_K",
            "_ggml_graph_view",
            "_ggml_upscale",
            "__ZN6google8protobuf8internal14ArenaStringPtr12ClearToEmptyEv",
            "_ggml_cpu_has_bmi2",
            "__ZN13sentencepiece10normalizer10NormalizerC1ERKNS_14NormalizerSpecE",
            "_ggml_backend_buft_name",
            "_ggml_vec_dot_iq2_s_q8_K_generic",
            "__ZN4absl12lts_2024072220DurationFromTimespecE8timespec",
            "_ggml_compute_forward_argsort",
            "_ggml_threadpool_params_default",
            "__ZN13sentencepiece31SentencePieceText_SentencePiece5ClearEv",
            "__ZN35qvac_lib_inference_addon_mlc_marian6unloadEP8js_env_sP18js_callback_info_s",
            "__ZNK13sentencepiece26ImmutableSentencePieceText6piecesEi",
            "__ZN4absl12lts_2024072213base_internal8SpinLock8SlowLockEv",
            "__ZNK13sentencepiece22SentencePieceProcessor9NormalizeEN4absl12lts_2024072211string_viewEPNSt3__112basic_stringIcNS4_11char_traitsIcEENS4_9allocatorIcEEEEPNS4_6vectorImNS8_ImEEEE",
            "_ggml_gemm_q4_0_4x8_q8_0",
            "__ZN6google8protobuf8internal15ThreadSafeArena20InitializeWithPolicyEPvmNS1_16AllocationPolicyE",
            "_ggml_hardswish",
            "_ggml_compute_forward_scale",
            "__ZN35qvac_lib_inference_addon_mlc_marian16TranslationModel4loadEv",
            "__ZN4absl12lts_2024072213base_internal24SpinLockSuggestedDelayNSEi",
            "_ggml_backend_metal_buffer_type",
            "__ZN4absl12lts_2024072224synchronization_internal10WaiterBase15MaybeBecomeIdleEv",
            "_dequantize_row_q4_K",
            "__ZN6google8protobuf8internal12ExtensionSet9AddUInt64EihbyPKNS0_15FieldDescriptorE",
            "__ZN4absl12lts_2024072219str_format_internal17FormatConvertImplEDnNS1_24FormatConversionSpecImplEPNS1_14FormatSinkImplE",
            "_ggml_sigmoid_inplace",
            "__ZN13sentencepiece10ModelProto9_Internal14self_test_dataEPKS0_",
            "__ZN4absl12lts_2024072212ToInt64HoursENS0_8DurationE",
            "_ggml_compute_forward_mean",
            "_ggml_backend_alloc_ctx_tensors",
            "_ggml_backend_sched_get_tensor_backend",
            "__ZN6google8protobuf11MessageLite30ParseFromBoundedZeroCopyStreamEPNS0_2io19ZeroCopyInputStreamEi",
            "_ggml_new_graph_custom",
            "__ZN4absl12lts_2024072214flags_internal16ReportUsageErrorENS0_11string_viewEb",
            "__ZN13sentencepiece14NormalizerSpecD1Ev",
            "__ZN4absl12lts_2024072213base_internal8SpinLockC2ENS1_14SchedulingModeE",
            "__ZN6google8protobuf2io25CopyingInputStreamAdaptor4SkipEi",
            "__ZN6google8protobuf2io16FileOutputStreamD1Ev",
            "__ZN6google8protobuf19WebSafeBase64EscapeEPKhiPcib",
            "_ggml_vec_dot_q4_0_q8_0_generic",
            "_ggml_step_inplace",
            "_ggml_backend_tensor_get",
            "__ZN4absl12lts_2024072219str_format_internal16ConvertFloatImplEeRKNS1_24FormatConversionSpecImplEPNS1_14FormatSinkImplE",
            "__ZN4absl12lts_2024072221RegisterMutexProfilerEPFvxE",
            "__ZN13sentencepiece19SelfTestData_Sample9MergeFromERKS0_",
            "_ggml_backend_metal_capture_next_compute",
            "__ZN4absl12lts_20240722lsERNSt3__113basic_ostreamIcNS1_11char_traitsIcEEEENS0_7uint128E",
            "__ZN13sentencepiece22SentencePieceProcessor4LoadENSt3__110unique_ptrINS_10ModelProtoENS1_14default_deleteIS3_EEEE",
            "_ggml_backend_blas_init",
            "__ZN6google8protobuf8internal12ExtensionSet12InternalSwapEPS2_",
            "__ZN4absl12lts_202407226StrCatERKNS0_8AlphaNumES3_S3_",
            "_ggml_vec_dot_iq3_s_q8_K_generic",
            "__ZN13sentencepiece12SelfTestDataC1EPN6google8protobuf5ArenaEb",
            "__ZNK6google8protobuf8internal12ExtensionSet12GetRefUInt64EiRKy",
            "__ZN6google8protobuf8internal14WireFormatLite13WriteSFixed64EixPNS0_2io17CodedOutputStreamE",
            "_ggml_compute_forward_silu_back",
            "__ZN13sentencepiece14SetMinLogLevelEi",
            "__ZN4absl12lts_202407229ByAnyCharC1ENS0_11string_viewE",
            "__ZN4absl12lts_2024072213base_internal13LowLevelAlloc11DeleteArenaEPNS2_5ArenaE",
            "__ZN35qvac_lib_inference_addon_mlc_marian6cancelEP8js_env_sP18js_callback_info_s",
            "_ggml_compute_forward_repeat_back",
            "_ggml_tanh",
            "__ZN4absl12lts_2024072213time_internal4cctz17FixedOffsetToNameERKNSt3__16chrono8durationIxNS3_5ratioILl1ELl1EEEEE",
            "__ZN6google8protobuf8internal15ThreadSafeArena12thread_cacheEv",
            "_ggml_backend_buffer_get_type",
            "__ZNK13sentencepiece31SentencePieceText_SentencePiece12ByteSizeLongEv",
            "_ggml_backend_tensor_set_async",
            "__ZN6google8protobuf2io18StringOutputStreamC2EPNSt3__112basic_stringIcNS3_11char_traitsIcEENS3_9allocatorIcEEEE",
            "__ZNK13sentencepiece24ModelProto_SentencePiece13IsInitializedEv",
            "_ggml_cpy",
            "__ZNK4absl12lts_202407229ByAnyChar4FindENS0_11string_viewEm",
            "_ggml_sin_inplace",
            "_ggml_cpu_has_arm_fma",
            "__ZN6google8protobuf2io18IstreamInputStreamC1EPNSt3__113basic_istreamIcNS3_11char_traitsIcEEEEi",
            "__ZN4absl12lts_2024072219str_format_internal17FormatConvertImplEtNS1_24FormatConversionSpecImplEPNS1_14FormatSinkImplE",
            "__ZNK4absl12lts_2024072213time_internal4cctz12TimeZoneInfo8MakeTimeERKNS2_6detail10civil_timeINS4_10second_tagEEE",
            "__ZN4absl12lts_2024072214flags_internal13AbslParseFlagENS0_11string_viewEPdPNSt3__112basic_stringIcNS4_11char_traitsIcEENS4_9allocatorIcEEEE",
            "_ggml_compute_forward_get_rel_pos",
            "__ZNK6google8protobuf8internal12ExtensionSet9GetUInt64Eiy",
            "__ZN4absl12lts_2024072213time_internal4cctz12TimeZoneInfo17ResetToBuiltinUTCERKNSt3__16chrono8durationIxNS4_5ratioILl1ELl1EEEEE",
            "__ZN4ggml3cpu6repack6repackI10block_q4_0Lx8ELx4EEEiP11ggml_tensorPKvm",
            "_ggml_reshape",
            "__ZN6google8protobuf2io18IstreamInputStreamC2EPNSt3__113basic_istreamIcNS3_11char_traitsIcEEEEi",
            "__ZN6google8protobuf2io19EpsCopyOutputStream19FlushAndResetBufferEPh",
            "__ZNK6google8protobuf8internal12ExtensionSet17GetRepeatedStringEii",
            "__ZN4ggml3cpu6repack4gemmI10block_q4_KLx8ELx8EL9ggml_type15EEEviPfmPKvS7_ii",
            "__ZN6google8protobuf2io16FileOutputStream23CopyingFileOutputStreamD2Ev",
            "_dequantize_row_iq3_xxs",
            "__ZN6google8protobuf4util15status_internal8OkStatusEv",
            "__ZN4absl12lts_2024072213base_internal10CycleClock3NowEv",
            "__ZNK13sentencepiece7unigram7Lattice4sizeEv",
            "__ZN4absl12lts_2024072210SimpleAtofENS0_11string_viewEPf",
            "__ZN6google8protobuf2io19LimitingInputStream6BackUpEi",
            "__ZN4absl12lts_2024072214flags_internal13AbslParseFlagENS0_11string_viewEPyPNSt3__112basic_stringIcNS4_11char_traitsIcEENS4_9allocatorIcEEEE",
            "__ZN4absl12lts_2024072214flags_internal13MaskedPointer9ApplyMaskEm",
            "__ZNK13sentencepiece7unigram7Lattice17BackwardAlgorithmEf",
            "__ZN6google8protobuf8internal19PackedFixed32ParserEPvPKcPNS1_12ParseContextE",
            "__ZN6google8protobuf2io19EpsCopyOutputStream19EnsureSpaceFallbackEPh",
            "__Z43qvac_lib_inference_addon_mlc_marian_exportsP8js_env_sP10js_value_s",
            "_ggml_cont",
            "__ZN13sentencepiece14ModelInterface16InitializePiecesEv",
            "_ggml_elu",
            "__ZNK6google8protobuf8internal12ExtensionSet19GetRefRepeatedInt64Eii",
            "__ZN4ggml3cpu6repack4gemmI10block_q4_0Lx8ELx8EL9ggml_type8EEEviPfmPKvS7_ii",
            "__ZN6google8protobuf8internal12ExtensionSet12SwapElementsEiii",
            "_ggml_backend_cpu_set_abort_callback",
            "__ZN4absl12lts_2024072214flags_internal13AbslParseFlagENS0_11string_viewEPiPNSt3__112basic_stringIcNS4_11char_traitsIcEENS4_9allocatorIcEEEE",
            "__ZN13sentencepiece22NBestSentencePieceTextD2Ev",
            "__ZN6google8protobuf21SplitStringAllowEmptyENS0_20stringpiece_internal11StringPieceEPKcPNSt3__16vectorINS5_12basic_stringIcNS5_11char_traitsIcEENS5_9allocatorIcEEEENSA_ISC_EEEE",
            "__ZN6google8protobuf8internal14DestroyMessageEPKv",
            "__ZNK4absl12lts_2024072224synchronization_internal13KernelTimeout21InMillisecondsFromNowEv",
            "_ggml_vec_log_soft_max_f32",
            "_ggml_l2_norm_inplace",
            "__ZN13sentencepiece17SentencePieceText14_InternalParseEPKcPN6google8protobuf8internal12ParseContextE",
            "__ZN6google8protobuf2io19LimitingInputStreamC2EPNS1_19ZeroCopyInputStreamEx",
            "__ZN4absl12lts_2024072220ToChronoMicrosecondsENS0_8DurationE",
            "__ZN6google8protobuf8internal16InternalMetadata11DoMergeFromINSt3__112basic_stringIcNS4_11char_traitsIcEENS4_9allocatorIcEEEEEEvRKT_",
            "__ZN4absl12lts_2024072210SimpleAtodENS0_11string_viewEPd",
            "_ggml_vec_dot_iq2_xs_q8_K_generic",
            "__ZN6google8protobuf2io16ArrayInputStream4SkipEi",
            "_ggml_backend_register",
            "__ZNK13sentencepiece22SentencePieceProcessor20SampleEncodeAndScoreEN4absl12lts_2024072211string_viewEifbbPNS_22NBestSentencePieceTextE",
            "__ZN4absl12lts_2024072214flags_internal13AbslParseFlagENS0_11string_viewEPlPNSt3__112basic_stringIcNS4_11char_traitsIcEENS4_9allocatorIcEEEE",
            "__ZN13sentencepiece14NormalizerSpecC1ERKS0_",
            "__ZN4absl12lts_2024072214flags_internal7UnparseEx",
            "__ZN13sentencepiece11TrainerSpec8CopyFromERKS0_",
            "_quantize_row_q8_K",
            "__ZN4absl12lts_2024072219DurationFromTimevalE7timeval",
            "_ggml_hash_set_reset",
            "__ZN13sentencepiece14ModelInterfaceC2ERKNS_10ModelProtoE",
            "__ZN13sentencepiece26ImmutableSentencePieceTextC1Ev",
            "_ggml_backend_tensor_get_async",
            "__ZN4absl12lts_202407227uint128C2Ed",
            "__ZN6google8protobuf2io19OstreamOutputStream26CopyingOstreamOutputStream5WriteEPKvi",
            "__ZN6google8protobuf8internal12ExtensionSetC2EPNS0_5ArenaE",
            "_ggml_abort",
            "__ZN13sentencepiece22NBestSentencePieceTextC1ERKS0_",
            "__ZN6google8protobuf11MessageLite37ParsePartialFromBoundedZeroCopyStreamEPNS0_2io19ZeroCopyInputStreamEi",
            "__ZNK13sentencepiece22SentencePieceProcessor25PopulateSentencePieceTextEN4absl12lts_2024072211string_viewES3_RKNSt3__16vectorImNS4_9allocatorImEEEERKNS5_INS4_4pairIS3_iEENS6_ISC_EEEEPNS_17SentencePieceTextE",
            "__ZN6google8protobuf2io16CodedInputStream7ReadRawEPvi",
            "__ZN13sentencepiece26TrainerSpec_ModelType_NameENS_21TrainerSpec_ModelTypeE",
            "__ZNK13sentencepiece22SentencePieceProcessor6DecodeERKNSt3__16vectorIiNS1_9allocatorIiEEEEPNS1_12basic_stringIcNS1_11char_traitsIcEENS3_IcEEEE",
            "_ggml_compute_forward_norm",
            "__ZN6google8protobuf11MessageLite13MergeFromImplEPNS0_2io16CodedInputStreamENS1_10ParseFlagsE",
            "__ZN6google8protobuf8internal12ExtensionSet9SetUInt32EihjPKNS0_15FieldDescriptorE",
            "__ZNK6google8protobuf14FatalException4whatEv",
            "__ZN6google8protobuf8internal14WireFormatLite22WriteGroupMaybeToArrayEiRKNS0_11MessageLiteEPNS0_2io17CodedOutputStreamE",
            "_ggml_is_contiguous_0",
            "__ZN6google8protobuf8internal12ExtensionSet11ReleaseLastEi",
            "__Z8nmt_fullP11nmt_contextPKc",
            "__ZNK6google8protobuf8internal12ExtensionSet19GetRefRepeatedFloatEii",
            "_ggml_compute_forward_cross_entropy_loss_back",
            "__ZN6google8protobuf5Arena23AllocateAlignedWithHookEmPKSt9type_info",
            "__ZNK4absl12lts_2024072213time_internal4cctz12TimeZoneLibC8MakeTimeERKNS2_6detail10civil_timeINS4_10second_tagEEE",
            "__ZN4absl12lts_2024072213base_internal13LowLevelAlloc8NewArenaEj",
            "_ggml_compute_forward_l2_norm",
            "__ZN6google8protobuf8internal10LogMessagelsEPKc",
            "_ggml_cycles",
            "__ZN6google8protobuf8internal14WireFormatLite13WriteSFixed32EiiPNS0_2io17CodedOutputStreamE",
            "_ggml_gemv_iq4_nl_4x4_q8_0",
            "__ZN6google8protobuf2io16FileOutputStream5CloseEv",
            "__ZNK4absl12lts_202407224Time2InENS0_8TimeZoneE",
            "__ZN4absl12lts_202407227uint128C1Ee",
            "__ZNK6google8protobuf8internal12ExtensionSet19GetRefRepeatedInt32Eii",
            "__Z39ggml_backend_cpu_get_extra_buffers_typev",
            "__ZN6google8protobuf8internal12ExtensionSet21MutableRepeatedStringEii",
            "__ZN4absl12lts_2024072216numbers_internal15FastIntToBufferExPc",
            "__ZN6google8protobuf2io25CopyingInputStreamAdaptorC2EPNS1_18CopyingInputStreamEi",
            "_ggml_cpu_fp16_to_fp32",
            "__ZN6google8protobuf20stringpiece_internal11StringPiece7ConsumeES2_",
            "_ggml_get_name",
            "__ZNK6google8protobuf8internal12ExtensionSet9Extension13IsInitializedEv",
            "_ggml_compute_forward_diag_mask_zero",
            "__ZN13sentencepiece14ModelInterfaceD0Ev",
            "__ZN6google8protobuf2io16FileOutputStream23CopyingFileOutputStreamD1Ev",
            "_ggml_compute_forward_sigmoid",
            "_ggml_rms_norm_inplace",
            "__ZN4absl12lts_2024072224synchronization_internal13PthreadWaiter4PokeEv",
            "__ZNK4absl12lts_202407229Condition4EvalEv",
            "__ZN4absl12lts_2024072213time_internal4cctz12TimeZoneInfo4LoadEPNS2_14ZoneInfoSourceE",
            "_ggml_backend_buffer_get_size",
            "__ZN6google8protobuf2io16CodedInputStream37CheckEntireMessageConsumedAndPopLimitEi",
            "__ZN6google8protobuf11MessageLite30MergeFromBoundedZeroCopyStreamEPNS0_2io19ZeroCopyInputStreamEi",
            "_ggml_backend_alloc_ctx_tensors_from_buft",
            "__ZN13sentencepiece22SentencePieceProcessorD2Ev",
            "_ggml_gated_linear_attn",
            "__ZN6google8protobuf8internal14WireFormatLite11SkipMessageEPNS0_2io16CodedInputStreamE",
            "__ZNK13sentencepiece19SelfTestData_Sample12ByteSizeLongEv",
            "__ZNK6google8protobuf11MessageLite29LogInitializationErrorMessageEv",
            "__ZNK6google8protobuf8internal11SerialArena9SpaceUsedEv",
            "__ZN35qvac_lib_inference_addon_mlc_marian5pauseEP8js_env_sP18js_callback_info_s",
            "__ZN6google8protobuf21UnescapeCEscapeStringERKNSt3__112basic_stringIcNS1_11char_traitsIcEENS1_9allocatorIcEEEEPS7_PNS1_6vectorIS7_NS5_IS7_EEEE",
            "__ZNK6google8protobuf8internal12ExtensionSet15GetRepeatedEnumEii",
            "_ggml_set_output",
            "_quantize_q5_0",
            "__ZN4absl12lts_2024072214flags_internal8FlagImpl10StoreValueEPKvNS1_11ValueSourceE",
            "__ZNK4absl12lts_202407228ByString4FindENS0_11string_viewEm",
            "_ggml_reset",
            "_ggml_set_inplace",
            "__ZN6google8protobuf2io17ArrayOutputStream6BackUpEi",
            "__ZN13sentencepiece14NormalizerSpec12InternalSwapEPS0_",
            "__ZN4absl12lts_2024072219str_format_internal17FormatConvertImplEyNS1_24FormatConversionSpecImplEPNS1_14FormatSinkImplE",
            "_ggml_set_2d_inplace",
            "_ggml_graph_dup",
            "__ZNK4absl12lts_2024072213time_internal4cctz12TimeZoneInfo9LocalTimeExRKNS2_10TransitionE",
            "_ggml_backend_buffer_is_multi_buffer",
            "__ZN13sentencepiece26ImmutableSentencePieceText13mutable_protoEv",
            "__ZN6google8protobuf23InternalFastHexToBufferEyPci",
            "_ggml_dup",
            "__ZNK13sentencepiece7unigram5Model15EncodeOptimizedEN4absl12lts_2024072211string_viewE",
            "__ZN6google8protobuf8internal12ExtensionSet22MutableRepeatedMessageEii",
            "_ggml_validate_row_data",
            "__ZN28qvac_lib_inference_addon_cpp5AddonIN35qvac_lib_inference_addon_mlc_marian16TranslationModelEE7processEv",
            "_ggml_compute_forward_concat",
            "__ZN13sentencepiece12ModelFactory6CreateERKNS_10ModelProtoE",
            "_quantize_iq3_xxs",
            "_ggml_arange",
            "__ZN4absl12lts_202407227ToTimeTENS0_4TimeE",
            "__ZN6google8protobuf8internal19ImplicitWeakMessage16default_instanceEv",
            "_ggml_rope",
            "_ggml_backend_is_metal",
            "_ggml_compute_forward_unary",
            "__ZNK4absl12lts_2024072211string_view4findEcm",
            "__Z19ggml_quantize_mat_tILx8EL9ggml_type15EEvPKfPvxx",
            "__ZNK6google8protobuf8internal12ExtensionSet9GetDoubleEid",
            "__ZNK4absl12lts_2024072219str_format_internal10Streamable5PrintERNSt3__113basic_ostreamIcNS3_11char_traitsIcEEEE",
            "__ZN6google8protobuf11MessageLite20ParseFromCodedStreamEPNS0_2io16CodedInputStreamE",
            "_ggml_sqr_inplace",
            "_ggml_vec_dot_iq4_xs_q8_K",
            "__ZN4absl12lts_2024072210ToTimespecENS0_4TimeE",
            "__ZN13sentencepiece17SentencePieceTextD2Ev",
            "__ZN4absl12lts_2024072214flags_internal13AbslParseFlagENS0_11string_viewEPNS0_6int128EPNSt3__112basic_stringIcNS5_11char_traitsIcEENS5_9allocatorIcEEEE",
            "__ZN4absl12lts_2024072220ToDoubleMillisecondsENS0_8DurationE",
            "__ZN6google8protobuf6StrCatERKNS0_7strings8AlphaNumES4_S4_S4_S4_S4_",
            "_ggml_backend_graph_compute",
            "_ggml_sum",
            "__ZN13sentencepiece22SentencePieceProcessor8SetModelEONSt3__110unique_ptrINS_14ModelInterfaceENS1_14default_deleteIS3_EEEE",
            "__ZN6google8protobuf2io16ArrayInputStreamC2EPKvii",
            "__ZN4absl12lts_2024072218container_internal19PrepareInsertNonSooERNS1_12CommonFieldsEmNS1_8FindInfoERKNS1_15PolicyFunctionsE",
            "__ZNK13sentencepiece22SentencePieceProcessor11NBestEncodeEN4absl12lts_2024072211string_viewEiPNSt3__16vectorINS5_IiNS4_9allocatorIiEEEENS6_IS8_EEEE",
            "_ggml_type_sizef",
            "__ZN6google8protobuf9StrAppendEPNSt3__112basic_stringIcNS1_11char_traitsIcEENS1_9allocatorIcEEEERKNS0_7strings8AlphaNumE",
            "_ggml_sigmoid",
            "_quantize_iq4_xs",
            "__ZN4absl12lts_2024072216numbers_internal12PutTwoDigitsEjPc",
            "__ZN6google8protobuf2io19LimitingInputStream4NextEPPKvPi",
            "_ggml_gallocr_get_buffer_size",
            "__ZN13sentencepiece11PieceToByteEN4absl12lts_2024072211string_viewE",
            "_ggml_compute_forward_dup",
            "__ZN6google8protobuf17FastHex32ToBufferEjPc",
            "__ZNK13sentencepiece7unigram7Lattice16PopulateMarginalEfPNSt3__16vectorIfNS2_9allocatorIfEEEE",
            "__ZNK6google8protobuf2io16CodedInputStream15BytesUntilLimitEv",
            "__ZN6google8protobuf8internal20RepeatedPtrFieldBase8CloseGapEii",
            "__ZN6google8protobuf7strings10CHexEscapeERKNSt3__112basic_stringIcNS2_11char_traitsIcEENS2_9allocatorIcEEEE",
            "__ZNK4absl12lts_2024072213time_internal4cctz14ZoneInfoSource7VersionEv",
            "_ggml_conv_2d",
            "__ZNK6google8protobuf11MessageLite17SerializeToStringEPNSt3__112basic_stringIcNS2_11char_traitsIcEENS2_9allocatorIcEEEE",
            "_quantize_row_iq2_s_ref",
            "_quantize_row_q8_1",
            "_ggml_backend_buft_get_alloc_size",
            "__ZNK13sentencepiece7unigram7Lattice8sentenceEv",
            "__ZN6google8protobuf8internal15ThreadSafeArena26AllocateAlignedWithCleanupEmPKSt9type_info",
            "_ggml_rope_multi_back",
            "__ZNK13sentencepiece19SelfTestData_Sample13SetCachedSizeEi",
            "__ZN4absl12lts_2024072213StrReplaceAllESt16initializer_listINSt3__14pairINS0_11string_viewES4_EEEPNS2_12basic_stringIcNS2_11char_traitsIcEENS2_9allocatorIcEEEE",
            "__ZN13sentencepiece7unigram5ModelC1ERKNS_10ModelProtoE",
            "__ZNK6google8protobuf2io16CodedInputStream25BytesUntilTotalBytesLimitEv",
            "_ggml_mul_mat_id",
            "__ZN6google8protobuf2io19EpsCopyOutputStream14EnableAliasingEb",
            "_ggml_cpu_init",
            "_ggml_is_contiguous",
            "_quantize_row_q4_K_ref",
            "_ggml_init",
            "__ZN6google8protobuf8internal12ExtensionSet17SetRepeatedDoubleEiid",
            "__ZN4absl12lts_2024072215TimeFromTimevalE7timeval",
            "_ggml_compute_forward_conv_2d_dw",
            "_ggml_vec_dot_iq3_xxs_q8_K_generic",
            "_ggml_backend_blas_set_n_threads",
            "_quantize_row_q8_0_ref",
            "_ggml_gemm_q4_K_8x8_q8_K",
            "__ZN6google8protobuf4util15status_internal6StatusC1Ev",
            "_ggml_backend_is_blas",
            "__ZN4absl12lts_2024072216numbers_internal17safe_strto32_baseENS0_11string_viewEPii",
            "__ZNK4absl12lts_2024072224synchronization_internal13KernelTimeout20MakeRelativeTimespecEv",
            "_quantize_row_tq2_0_ref",
            "__ZN6google8protobuf8internal12ExtensionSet8AddInt64EihbxPKNS0_15FieldDescriptorE",
            "__ZN6google8protobuf21FastInt64ToBufferLeftExPc",
            "__ZN13sentencepiece31ImmutableNBestSentencePieceTextC1Ev",
            "__ZN6google8protobuf17FastHex64ToBufferEyPc",
            "__ZN4absl12lts_2024072213base_internal10CycleClock9FrequencyEv",
            "_quantize_row_iq3_xxs_ref",
            "_ggml_neg_inplace",
            "__ZN4absl12lts_202407227CondVar6SignalEv",
            "__ZNK13sentencepiece14NormalizerSpec13IsInitializedEv",
            "__ZNK13sentencepiece7unigram7Lattice16ForwardAlgorithmEf",
            "__ZN6google8protobuf2io19OstreamOutputStreamD1Ev",
            "__ZN6google8protobuf6ghtonlEj",
            "__ZN6google8protobuf4util15status_internal18IsPermissionDeniedERKNS2_6StatusE",
            "__ZNK13sentencepiece7unigram7Lattice9utf8_sizeEv",
            "__ZN4absl12lts_2024072219str_format_internal13FormatUntypedENS1_17FormatRawSinkImplENS1_21UntypedFormatSpecImplENS0_4SpanIKNS1_13FormatArgImplEEE",
            "__ZN6google8protobuf2io15FileInputStream22CopyingFileInputStreamD0Ev",
            "__ZN6google8protobuf2io18CopyingInputStream4SkipEi",
            "__ZN6google8protobuf8internal12ExtensionSet23MutableRawRepeatedFieldEi",
            "__ZNK6google8protobuf8internal12ExtensionSet16GetRepeatedInt32Eii",
            "_ggml_is_contiguous_2",
            "_ggml_compute_forward_rwkv_wkv7",
            "__ZNK6google8protobuf8internal12ExtensionSet3HasEi",
            "__ZN6google8protobuf2io15FileInputStream6BackUpEi",
            "__ZN13sentencepiece49ImmutableSentencePieceText_ImmutableSentencePieceC1ERKNS_31SentencePieceText_SentencePieceE",
            "__ZN13sentencepiece22SentencePieceProcessorD0Ev",
            "__ZN35qvac_lib_inference_addon_mlc_marian16TranslationModelD1Ev",
            "__ZN6google8protobuf8internal12ExtensionSet21RegisterEnumExtensionEPKNS0_11MessageLiteEihbbPFbiE",
            "__ZN13sentencepiece31SentencePieceText_SentencePieceC1EPN6google8protobuf5ArenaEb",
            "_ggml_tensor_overhead",
            "__ZN13sentencepiece12SelfTestData12InternalSwapEPS0_",
            "__ZN4absl12lts_2024072214ToInt64MinutesENS0_8DurationE",
            "__ZN4absl12lts_202407228ByStringC1ENS0_11string_viewE",
            "__ZNK6google8protobuf8internal12ExtensionSet22_InternalSerializeImplEPKNS0_11MessageLiteEiiPhPNS0_2io19EpsCopyOutputStreamE",
            "__ZN13sentencepiece5error4ExitEi",
            "__ZN4absl12lts_2024072213time_internal4cctz10TimeZoneIfD2Ev",
            "__ZN6google8protobuf4util15status_internal6StatusC2Ev",
            "_ggml_set_f32_nd",
            "__ZN4absl12lts_2024072213base_internal13LowLevelAlloc12DefaultArenaEv",
            "__ZNK6google8protobuf2io19LimitingInputStream9ByteCountEv",
            "_ggml_backend_cpu_set_n_threads",
            "__ZNK13sentencepiece19SelfTestData_Sample18_InternalSerializeEPhPN6google8protobuf2io19EpsCopyOutputStreamE",
            "__ZN6google8protobuf8internal12ExtensionSet8AddFloatEihbfPKNS0_15FieldDescriptorE",
            "__ZN13sentencepiece4word5ModelD2Ev",
            "_ggml_top_k",
            "__ZNK6google8protobuf8internal12ExtensionSet8ByteSizeEv",
            "__ZN35qvac_lib_inference_addon_mlc_marian11loadWeightsEP8js_env_sP18js_callback_info_s",
            "__Z15nmt_token_countP11nmt_contextPKc",
            "__ZN6google8protobuf2io16CodedInputStream10ReadStringEPNSt3__112basic_stringIcNS3_11char_traitsIcEENS3_9allocatorIcEEEEi",
            "_ggml_backend_metal_buffer_from_ptr",
            "_ggml_set_input",
            "__ZN6google8protobuf4util15status_internal12IsOutOfRangeERKNS2_6StatusE",
            "__ZN6google8protobuf21UnescapeCEscapeStringERKNSt3__112basic_stringIcNS1_11char_traitsIcEENS1_9allocatorIcEEEE",
            "__ZN6google8protobuf8internal14WireFormatLite15WriteFloatArrayEPKfiPNS0_2io17CodedOutputStreamE",
            "__ZN6google8protobuf8internal17DefaultLogHandlerENS0_8LogLevelEPKciRKNSt3__112basic_stringIcNS5_11char_traitsIcEENS5_9allocatorIcEEEE",
            "__ZN6google8protobuf8internal14WireFormatLite22WriteBytesMaybeAliasedEiRKNSt3__112basic_stringIcNS3_11char_traitsIcEENS3_9allocatorIcEEEEPNS0_2io17CodedOutputStreamE",
            "_ggml_cast",
            "__ZNK6google8protobuf8internal12ExtensionSet17GetRepeatedDoubleEii",
            "_ggml_rms_norm_back",
            "__ZN4absl12lts_2024072229EnableMutexInvariantDebuggingEb",
            "__ZN6google8protobuf8internal14ArenaStringPtr3SetERKNSt3__112basic_stringIcNS3_11char_traitsIcEENS3_9allocatorIcEEEEPNS0_5ArenaE",
            "_ggml_backend_buffer_init",
            "_quantize_row_q4_1",
            "__ZN13sentencepiece31SentencePieceText_SentencePieceD1Ev",
            "__ZN4absl12lts_2024072219str_format_internal17FormatConvertImplERKNSt3__112basic_stringIwNS2_11char_traitsIwEENS2_9allocatorIwEEEENS1_24FormatConversionSpecImplEPNS1_14FormatSinkImplE",
            "__ZN4absl12lts_2024072219str_format_internal17FormatConvertImplExNS1_24FormatConversionSpecImplEPNS1_14FormatSinkImplE",
            "__ZN4absl12lts_2024072224synchronization_internal13KernelTimeout14SteadyClockNowEv",
            "__ZNK13sentencepiece22SentencePieceProcessor8IsUnusedEi",
            "_ggml_vec_dot_q2_K_q8_K",
            "_ggml_win_unpart",
            "__ZNK13sentencepiece24ModelProto_SentencePiece18_InternalSerializeEPhPN6google8protobuf2io19EpsCopyOutputStreamE",
            "__ZN6google8protobuf8internal11GenericSwapEPNS0_11MessageLiteES3_",
            "__ZN6google8protobuf5Arena18CreateMaybeMessageIN13sentencepiece14NormalizerSpecEJEEEPT_PS1_DpOT0_",
            "_ggml_step",
            "_ggml_conv_2d_sk_p0",
            "_ggml_is_scalar",
            "_ggml_nbytes_pad",
            "__ZNK4absl12lts_2024072214flags_internal8FlagImpl11ReadOneWordEv",
            "__ZNK4absl12lts_2024072213time_internal4cctz12TimeZoneInfo9BreakTimeERKNSt3__16chrono10time_pointINS5_12system_clockENS5_8durationIxNS4_5ratioILl1ELl1EEEEEEE",
            "__ZN13sentencepiece10ModelProto9_Internal15normalizer_specEPKS0_",
            "__ZN6google8protobuf2io15FileInputStream22CopyingFileInputStream5CloseEv",
            "__ZN4absl12lts_2024072213base_internal7NumCPUsEv",
            "__ZN6google8protobuf21FastInt32ToBufferLeftEiPc",
            "__ZNK4absl12lts_2024072213time_internal4cctz9time_zone4nameEv",
            "_ggml_soft_max_ext",
            "__ZNK4absl12lts_2024072214flags_internal8FlagImpl12DefaultValueEv",
            "__ZN4absl12lts_2024072219str_format_internal17FormatConvertImplEwNS1_24FormatConversionSpecImplEPNS1_14FormatSinkImplE",
            "__ZN4absl12lts_202407225Mutex45InternalAttemptToUseMutexInFatalSignalHandlerEv",
            "__ZN6google8protobuf8internal15ThreadSafeArena23AllocateAlignedFallbackEmPKSt9type_info",
            "_iq3xs_free_impl",
            "__ZN6google8protobuf8internal12ExtensionSetD2Ev",
            "__ZNK6google8protobuf8internal12ExtensionSet17GetRepeatedUInt64Eii",
            "_ggml_compute_forward_group_norm",
            "__ZN4absl12lts_2024072213time_internal4cctz12TimeZoneInfo17ExtendTransitionsEv",
            "__ZN6google8protobuf5Arena18CreateMaybeMessageIN13sentencepiece24ModelProto_SentencePieceEJEEEPT_PS1_DpOT0_",
            "__ZN6google8protobuf8internal21InitializeEnumStringsEPKNS1_9EnumEntryEPKimPNS1_21ExplicitlyConstructedINSt3__112basic_stringIcNS8_11char_traitsIcEENS8_9allocatorIcEEEELm1EEE",
            "__ZNK6google8protobuf11MessageLite11DebugStringEv",
            "__ZNK6google8protobuf11MessageLite17SerializeAsStringEv",
            "__ZN4absl12lts_2024072219str_format_internal12BindWithPackEPKNS1_17UnboundConversionENS0_4SpanIKNS1_13FormatArgImplEEEPNS1_15BoundConversionE",
            "__ZN6google8protobuf5Arena18CreateMaybeMessageIN13sentencepiece12SelfTestDataEJEEEPT_PS1_DpOT0_",
            "_dequantize_row_q4_0",
            "__ZN4absl12lts_2024072218container_internal29ShouldInsertBackwardsForDebugEmmPKNS1_6ctrl_tE",
            "__ZN4absl12lts_2024072224synchronization_internal13KernelTimeoutC2ENS0_4TimeE",
            "__ZN6google8protobuf8internal14WireFormatLite11SkipMessageEPNS0_2io16CodedInputStreamEPNS3_17CodedOutputStreamE",
            "_ggml_vec_dot_q5_1_q8_1_generic",
            "__ZN13sentencepiece19SelfTestData_Sample12InternalSwapEPS0_",
            "__ZN6google8protobuf8internal13VersionStringEi",
            "__ZN13sentencepiece22NBestSentencePieceText14_InternalParseEPKcPN6google8protobuf8internal12ParseContextE",
            "_ggml_cpu_has_f16c",
            "__ZN6google8protobuf2io16CodedInputStream35IncrementRecursionDepthAndPushLimitEi",
            "__ZN4absl12lts_202407228DurationrMES1_",
            "__ZN13sentencepiece4util13StrSplitAsCSVEN4absl12lts_2024072211string_viewE",
            "_dequantize_row_q6_K",
            "__ZN6google8protobuf8internal12StringParserEPKcS3_PvPNS1_12ParseContextE",
            "__ZNK13sentencepiece22SentencePieceProcessor9NormalizeEN4absl12lts_2024072211string_viewEPNSt3__112basic_stringIcNS4_11char_traitsIcEENS4_9allocatorIcEEEE",
            "__ZNK6google8protobuf8internal12ExtensionSet18GetRefRepeatedEnumEii",
            "__Z14nmt_free_stateP9nmt_state",
            "_iq2xs_free_impl",
            "_ggml_compute_forward_ssm_scan",
            "_ggml_backend_buft_get_device",
            "__ZNK13sentencepiece11TrainerSpec13IsInitializedEv",
            "__ZNK13sentencepiece22SentencePieceProcessor6eos_idEv",
            "__ZN4absl12lts_2024072219str_format_internal14ConvertBoolArgEbPNS1_14FormatSinkImplE",
            "__ZN4absl12lts_2024072216raw_log_internal17RegisterAbortHookEPFvPKciS3_S3_S3_E",
            "_quantize_row_q8_1_ref",
            "__ZN4absl12lts_2024072213GetStackTraceEPPvii",
            "__ZNK6google8protobuf8internal12ExtensionSet10GetRefBoolEiRKb",
            "__ZN4absl12lts_2024072219RegisterMutexTracerEPFvPKcPKvxE",
            "__ZN6google8protobuf8internal14ArenaStringPtr13MutableNoCopyEPNS0_5ArenaE",
            "__ZN4absl12lts_2024072219ToInt64MicrosecondsENS0_8DurationE",
            "__ZN6google8protobuf2io25CopyingInputStreamAdaptorC1EPNS1_18CopyingInputStreamEi",
            "_ggml_map_custom3",
            "__ZN4absl12lts_2024072214flags_internal13AbslParseFlagENS0_11string_viewEPbPNSt3__112basic_stringIcNS4_11char_traitsIcEENS4_9allocatorIcEEEE",
            "__ZNK4absl12lts_2024072214flags_internal8FlagImpl4ReadEPv",
            "_ggml_nbytes",
            "__ZN6google8protobuflsERNSt3__113basic_ostreamIcNS1_11char_traitsIcEEEERKNS0_7uint128E",
            "__ZNK13sentencepiece14NormalizerSpec12ByteSizeLongEv",
            "__ZN13sentencepiece11TrainerSpec21CheckTypeAndMergeFromERKN6google8protobuf11MessageLiteE",
            "_ggml_backend_load",
            "__ZN6google8protobuf8internal12ExtensionSet10FindOrNullEi",
            "__ZN6google8protobuf8internal10LogMessagelsERKNSt3__112basic_stringIcNS3_11char_traitsIcEENS3_9allocatorIcEEEE",
            "_ggml_flash_attn_ext_set_prec",
            "__ZN4absl12lts_2024072213base_internal8SpinLock16DecodeWaitCyclesEj",
            "__ZN4absl12lts_2024072213base_internal13LowLevelAlloc5AllocEm",
            "_ggml_compute_forward_count_equal",
            "_ggml_compute_forward_hardsigmoid",
            "__ZNK6google8protobuf8internal12ExtensionSet11GetRefFloatEiRKf",
            "__ZN6google8protobuf2io16CodedInputStream34DecrementRecursionDepthAndPopLimitEi",
            "_ggml_compute_forward_pad",
            "__ZNK13sentencepiece7unigram5Model23VerifyOutputsEquivalentEN4absl12lts_2024072211string_viewES4_",
            "__ZNK4absl12lts_2024072213time_internal4cctz12TimeZoneInfo9TimeLocalERKNS2_6detail10civil_timeINS4_10second_tagEEEx",
            "__ZNK13sentencepiece22SentencePieceProcessor11NBestEncodeEN4absl12lts_2024072211string_viewEiPNS_22NBestSentencePieceTextE",
            "_ggml_quantize_mat_q8_K_4x8_generic",
            "_ggml_graph_node",
            "_ggml_backend_get_alignment",
            "__ZNK6google8protobuf8internal12ExtensionSet8GetFloatEif",
            "_ggml_backend_offload_op",
            "_ggml_backend_tensor_alloc",
            "_ggml_vec_dot_q5_0_q8_0",
            "__ZNK6google8protobuf8internal12ExtensionSet12GetRefDoubleEiRKd",
            "__ZN35qvac_lib_inference_addon_mlc_marian16TranslationModel14saveLoadParamsERKNSt3__112basic_stringIcNS1_11char_traitsIcEENS1_9allocatorIcEEEE",
            "_ggml_log_set",
            "__Z14nmt_get_outputP11nmt_context",
            "_ggml_is_contiguously_allocated",
            "__ZN4ggml3cpu6repack6repackI10block_q4_0Lx4ELx4EEEiP11ggml_tensorPKvm",
            "__ZN4absl12lts_202407229FromUDateEd",
            "__ZN4absl12lts_2024072214flags_internal7UnparseENS0_6int128E",
            "__ZN13sentencepiece7unigram7Lattice5NBestEmbf",
            "_ggml_compute_forward_ssm_conv",
            "__ZN6google8protobuf8internal10LogMessageC1ENS0_8LogLevelEPKci",
            "__ZN4absl12lts_202407227uint128C1Ed",
            "__ZN4absl12lts_2024072216strings_internal10memcasecmpEPKcS3_m",
            "__ZNK6google8protobuf8internal12ExtensionSet20FindOrNullInLargeMapEi",
            "__ZN4absl12lts_2024072224synchronization_internal13PthreadWaiter4PostEv",
            "__ZN4absl12lts_2024072213time_internal4cctz12TimeZoneLibCC1ERKNSt3__112basic_stringIcNS4_11char_traitsIcEENS4_9allocatorIcEEEE",
            "__ZN13sentencepiece31SentencePieceText_SentencePiece21CheckTypeAndMergeFromERKN6google8protobuf11MessageLiteE",
            "__ZN4absl12lts_2024072224synchronization_internal13KernelTimeoutC1ENS0_8DurationE",
            "_ggml_conv_2d_dw_direct",
            "__ZNK6google8protobuf8internal12ExtensionSet7GetBoolEib",
            "__ZN6google8protobuf8internal18GenericTypeHandlerINS0_11MessageLiteEE5MergeERKS3_PS3_",
            "__ZN6google8protobuf8internal14WireFormatLite23WriteStringMaybeAliasedEiRKNSt3__112basic_stringIcNS3_11char_traitsIcEENS3_9allocatorIcEEEEPNS0_2io17CodedOutputStreamE",
            "_ggml_compute_forward_mul",
            "__ZNK13sentencepiece49ImmutableSentencePieceText_ImmutableSentencePiece7surfaceEv",
            "_ggml_backend_graph_plan_free",
            "__ZN4ggml3cpu17extra_buffer_typeD2Ev",
            "__ZN6google8protobuf2io16CodedInputStream26ReadLittleEndian32FallbackEPj",
            "_ggml_cos",
            "_ggml_vec_dot_q5_0_q8_0_generic",
            "_ggml_argsort",
            "__ZNK13sentencepiece12SelfTestData13SetCachedSizeEi",
            "_ggml_compute_forward_map_custom1",
            "__ZN13sentencepiece5error5AbortEv",
            "__ZNK4absl12lts_2024072218container_internal19HashSetResizeHelper38GrowIntoSingleGroupShuffleControlBytesEPNS1_6ctrl_tEm",
            "__ZN6google8protobuf8internal14WireFormatLite11WriteUInt32EijPNS0_2io17CodedOutputStreamE",
            "__ZN6google8protobuf8internal12ExtensionSet9AddStringEihPKNS0_15FieldDescriptorE",
            "__ZN13sentencepiece22SentencePieceProcessorC1Ev",
            "__ZN6google8protobuf2io16CodedInputStreamD1Ev",
            "__ZN13sentencepiece10ModelProto9_Internal12trainer_specEPKS0_",
            "__ZNK4absl12lts_2024072214flags_internal8FlagImpl13MakeInitValueEv",
            "_ggml_relu",
            "__ZN6google8protobuf2io16CodedInputStream26ReadLittleEndian64FallbackEPy",
            "__ZN4absl12lts_2024072219str_format_internal17LengthModToStringENS0_9LengthModE",
            "__ZNK13sentencepiece26ImmutableSentencePieceText17SerializeAsStringEv",
            "__ZNK6google8protobuf8internal12ExtensionSet16GetRepeatedFloatEii",
            "__ZN4absl12lts_2024072213base_internal22ThrowStdUnderflowErrorERKNSt3__112basic_stringIcNS2_11char_traitsIcEENS2_9allocatorIcEEEE",
            "_ggml_backend_dev_by_name",
            "__ZN6google8protobuf8internal19PackedFixed64ParserEPvPKcPNS1_12ParseContextE",
            "__ZN13sentencepiece24ModelProto_SentencePieceC1EPN6google8protobuf5ArenaEb",
            "__ZNK13sentencepiece12SelfTestData13IsInitializedEv",
            "__ZN13sentencepiece10normalizer10NormalizerC1ERKNS_14NormalizerSpecERKNS_11TrainerSpecE",
            "__ZNK6google8protobuf20stringpiece_internal11StringPiece8containsES2_",
            "_ggml_gelu_quick",
            "__ZN6google8protobuf8internal22NewFromPrototypeHelperEPKNS0_11MessageLiteEPNS0_5ArenaE",
            "_quantize_row_q8_1_generic",
            "_ggml_compute_forward_add_rel_pos",
            "__ZN6google8protobuf2io16CodedInputStream8PopLimitEi",
            "__ZN6google8protobuf2io26CopyingOutputStreamAdaptor5FlushEv",
            "__ZNK13sentencepiece22SentencePieceProcessor16CalculateEntropyEN4absl12lts_2024072211string_viewEfPf",
            "__ZN6google8protobuf11LogSilencerC2Ev",
            "__ZN6google8protobuf2io18IstreamInputStream25CopyingIstreamInputStreamC2EPNSt3__113basic_istreamIcNS4_11char_traitsIcEEEE",
            "__ZNK13sentencepiece31ImmutableNBestSentencePieceText17SerializeAsStringEv",
            "__ZN4absl12lts_202407225Mutex11TryLockSlowEv",
            "_ggml_abs",
            "__ZN6google8protobuf8internal10LogMessagelsEx",
            "__ZN4absl12lts_2024072219str_format_internal16ConvertFloatImplEdRKNS1_24FormatConversionSpecImplEPNS1_14FormatSinkImplE",
            "__ZN4absl12lts_2024072219str_format_internal11FILERawSink5WriteENS0_11string_viewE",
            "__ZNK13sentencepiece7unigram7Lattice8eos_nodeEv",
            "__ZN4ggml3cpu6repack4gemvI10block_q4_KLx8ELx8EL9ggml_type15EEEviPfmPKvS7_ii",
            "_ggml_cpu_fp32_to_bf16",
            "__ZN4absl12lts_2024072216numbers_internal15FastIntToBufferEjPc",
            "_ggml_hash_size",
            "_ggml_backend_buffer_reset",
            "__ZN6google8protobuf8internal12ExtensionSet9MergeFromEPKNS0_11MessageLiteERKS2_",
            "__ZN4absl12lts_2024072214GetStackFramesEPPvPiii",
            "__ZN4absl12lts_202407229ToTimevalENS0_4TimeE",
            "_ggml_vec_dot_tq2_0_q8_K",
            "__ZN13sentencepiece5error14GetTestCounterEv",
            "__ZN13sentencepiece31ImmutableNBestSentencePieceTextC2Ev",
            "_ggml_build_backward_expand",
            "__ZN13sentencepiece31ImmutableNBestSentencePieceTextD2Ev",
            "__ZN6google8protobuf8internal14ArenaStringPtr12SetAllocatedEPNSt3__112basic_stringIcNS3_11char_traitsIcEENS3_9allocatorIcEEEEPNS0_5ArenaE",
            "__ZN6google8protobuf8internal14LookUpEnumNameEPKNS1_9EnumEntryEPKimi",
            "__ZN4absl12lts_2024072213time_internal4cctz14load_time_zoneERKNSt3__112basic_stringIcNS3_11char_traitsIcEENS3_9allocatorIcEEEEPNS2_9time_zoneE",
            "__ZN6google8protobuf2io18IstreamInputStream25CopyingIstreamInputStreamD2Ev",
            "__ZN6google8protobuf22FastUInt32ToBufferLeftEjPc",
            "__ZN6google8protobuf2io19EpsCopyOutputStream4TrimEPh",
            "__ZNK13sentencepiece10ModelProto13SetCachedSizeEi",
            "__ZN6google8protobuf8internal11LogFinisheraSERNS1_10LogMessageE",
            "_ggml_vec_dot_q2_K_q8_K_generic",
            "__ZN6google8protobuf8internal10LogMessagelsEj",
            "__ZN6google8protobuf6StrCatERKNS0_7strings8AlphaNumES4_",
            "_ggml_ftype_to_ggml_type",
            "__ZNK13sentencepiece22SentencePieceProcessor6DecodeERKNSt3__16vectorIN4absl12lts_2024072211string_viewENS1_9allocatorIS5_EEEEPNS_17SentencePieceTextE",
            "_ggml_unary_inplace",
            "__ZN4absl12lts_2024072214flags_internal18FlagStateInterfaceD0Ev",
            "_ggml_vec_dot_iq2_xxs_q8_K_generic",
            "_ggml_rope_custom_inplace",
            "_ggml_compute_forward_relu",
            "__ZN4absl12lts_2024072213time_internal4cctz14ZoneInfoSourceD0Ev",
            "_ggml_gemm_q4_0_8x8_q8_0_generic",
            "__ZN6google8protobuf20stringpiece_internallsERNSt3__113basic_ostreamIcNS2_11char_traitsIcEEEENS1_11StringPieceE",
            "__Z14nmt_init_stateP11nmt_context",
            "__ZNK13sentencepiece22SentencePieceProcessor8GetScoreEi",
            "__ZN13sentencepiece10normalizer13PrefixMatcherC1ERKNSt3__13setIN4absl12lts_2024072211string_viewENS2_4lessIS6_EENS2_9allocatorIS6_EEEE",
            "__ZN6google8protobuf2io15FileInputStream4NextEPPKvPi",
            "__ZN6google8protobuf8internal12ExtensionSet17RegisterExtensionEPKNS0_11MessageLiteEihbbPFPKcS7_PNS1_12ParseContextEE",
            "_ggml_norm",
            "_ggml_gemv_q4_0_8x8_q8_0_generic",
            "__ZNK13sentencepiece14ModelInterface9PieceToIdEN4absl12lts_2024072211string_viewE",
            "__ZN28qvac_lib_inference_addon_cpp5AddonIN35qvac_lib_inference_addon_mlc_marian16TranslationModelEEC1IJP8js_env_sNSt3__117reference_wrapperIKNS7_12basic_stringIcNS7_11char_traitsIcEENS7_9allocatorIcEEEEEEP10js_value_sSI_SI_EEEDpT_",
            "__ZN4absl12lts_2024072219str_format_internal17FormatConvertImplEPKcNS1_24FormatConversionSpecImplEPNS1_14FormatSinkImplE",
            "__ZN4absl12lts_2024072219str_format_internal17FormatConvertImplEhNS1_24FormatConversionSpecImplEPNS1_14FormatSinkImplE",
            "__ZN6google8protobuf24UnescapeCEscapeSequencesEPKcPc",
            "__ZNK13sentencepiece49ImmutableSentencePieceText_ImmutableSentencePiece2idEv",
            "__ZNK6google8protobuf2io24ConcatenatingInputStream9ByteCountEv",
            "__ZN4absl12lts_2024072213FromUniversalEx",
            "__ZNK4absl12lts_2024072211string_view16find_last_not_ofEcm",
            "__ZNK4absl12lts_2024072214flags_internal8FlagImpl11ReadOneBoolEv",
            "__ZN28qvac_lib_inference_addon_cpp11JsInterfaceINS_5AddonIN35qvac_lib_inference_addon_mlc_marian16TranslationModelEEEE14createInstanceEP8js_env_sP18js_callback_info_s",
            "__ZN6google8protobuf8internal6IsNullILi10EEEbPKv",
            "_ggml_elu_inplace",
            "__ZNK6google8protobuf8internal12ExtensionSet16GetRepeatedInt64Eii",
            "__ZN13sentencepiece19SelfTestData_Sample5ClearEv",
            "__ZNK6google8protobuf20stringpiece_internal11StringPiece6substrEmm",
            "_ggml_set_param",
            "_quantize_q5_K",
            "__ZN6google8protobuf2io24ConcatenatingInputStreamC2EPKPNS1_19ZeroCopyInputStreamEi",
            "__ZNK4absl12lts_2024072211string_view12find_last_ofES1_m",
            "__ZN6google8protobuf2io17ArrayOutputStreamC2EPvii",
            "_ggml_is_quantized",
            "__ZN4absl12lts_2024072214flags_internal18FlagStateInterfaceD2Ev",
            "__ZN6google8protobuf11MessageLite30ParsePartialFromZeroCopyStreamEPNS0_2io19ZeroCopyInputStreamE",
            "__ZNK4absl12lts_2024072213time_internal4cctz12TimeZoneInfo11DescriptionEv",
            "_ggml_graph_cpy",
            "__ZN6google8protobuf2io17CodedOutputStream35WriteVarint32ToArrayOutOfLineHelperEjPh",
            "__ZN4absl12lts_2024072226RemoveExtraAsciiWhitespaceEPNSt3__112basic_stringIcNS1_11char_traitsIcEENS1_9allocatorIcEEEE",
            "__ZN6google8protobuf2io16CodedInputStream20ReadVarint32FallbackEj",
            "__ZN4absl12lts_2024072216numbers_internal18safe_strtou64_baseENS0_11string_viewEPyi",
            "__ZN6google8protobuf8internal10LogMessageD2Ev",
            "__ZN4absl12lts_2024072214flags_internal8FlagImpl9SaveStateEv",
            "__ZNK4absl12lts_2024072217ByAsciiWhitespace4FindENS0_11string_viewEm",
            "__ZN13sentencepiece11TrainerSpecD2Ev",
            "__ZN35qvac_lib_inference_addon_mlc_marian4loadEP8js_env_sP18js_callback_info_s",
            "__ZTWN4absl12lts_2024072213base_internal19thread_identity_ptrE",
            "__ZNK13sentencepiece14ModelInterface9eos_pieceEv",
            "_ggml_bf16_to_fp32_row",
            "__ZNK4absl12lts_2024072214flags_internal8FlagImpl14InvokeCallbackEv",
            "__ZNK13sentencepiece12SelfTestData11GetTypeNameEv",
            "_ggml_div_inplace",
            "_ggml_div",
            "__ZN4absl12lts_2024072213base_internal18ThrowStdLogicErrorERKNSt3__112basic_stringIcNS2_11char_traitsIcEENS2_9allocatorIcEEEE",
            "__ZN13sentencepiece24ModelProto_SentencePiece14_InternalParseEPKcPN6google8protobuf8internal12ParseContextE",
            "_ggml_vec_dot_iq3_xxs_q8_K",
            "__ZN4absl12lts_2024072213base_internal19NominalCPUFrequencyEv",
            "_ggml_get_rel_pos",
            "_ggml_quantize_mat_q8_0_4x8_generic",
            "_ggml_view_4d",
            "__ZNK13sentencepiece22SentencePieceProcessor9IdToPieceEi",
            "__ZN4absl12lts_2024072216strings_internal12AppendPiecesEPNSt3__112basic_stringIcNS2_11char_traitsIcEENS2_9allocatorIcEEEESt16initializer_listINS0_11string_viewEE",
            "_ggml_vec_dot_tq1_0_q8_K",
            "__ZN6google8protobuf8internal10OnShutdownEPFvvE",
            "_ggml_backend_metal_reg",
            "__ZN35qvac_lib_inference_addon_mlc_marian6statusEP8js_env_sP18js_callback_info_s",
            "__ZN6google8protobuf12Base64EscapeEPKhiPNSt3__112basic_stringIcNS3_11char_traitsIcEENS3_9allocatorIcEEEEb",
            "_ggml_quantize_mat_q8_0_4x8",
            "__ZN6google8protobuf8internal15ThreadSafeArena4FreeEPm",
            "__ZN6google8protobuf10SimpleDtoaEd",
            "_ggml_backend_init_by_type",
            "__ZN13sentencepiece12SelfTestData21CheckTypeAndMergeFromERKN6google8protobuf11MessageLiteE",
            "_ggml_compute_forward_sin",
            "__ZN6google8protobuf2io26CopyingOutputStreamAdaptor11WriteBufferEv",
            "_ggml_backend_dev_get",
            "_ggml_backend_multi_buffer_alloc_buffer",
            "_quantize_iq1_s",
            "__ZN13sentencepiece19SelfTestData_Sample14_InternalParseEPKcPN6google8protobuf8internal12ParseContextE",
            "__ZN35qvac_lib_inference_addon_mlc_marian16TranslationModel6unloadEv",
            "__ZN6google8protobuf8internal10LogMessagelsEy",
            "__ZN4absl12lts_2024072216numbers_internal18safe_strtou32_baseENS0_11string_viewEPji",
            "_ggml_compute_forward_hardswish",
            "_ggml_acc_inplace",
            "__ZNK4absl12lts_2024072224synchronization_internal13KernelTimeout12MakeAbsNanosEv",
            "__ZN4absl12lts_2024072219str_format_internal17FormatConvertImplEmNS1_24FormatConversionSpecImplEPNS1_14FormatSinkImplE",
            "__ZNK13sentencepiece22SentencePieceProcessor11NBestEncodeEN4absl12lts_2024072211string_viewEiPNSt3__16vectorINS5_INS4_12basic_stringIcNS4_11char_traitsIcEENS4_9allocatorIcEEEENS9_ISB_EEEENS9_ISD_EEEE",
            "__ZN4absl12lts_2024072214flags_internal7UnparseEf",
            "__ZN13sentencepiece22SentencePieceProcessor21SetDecodeExtraOptionsEN4absl12lts_2024072211string_viewE",
            "__ZNK4absl12lts_2024072214flags_internal8FlagImpl12CurrentValueEv",
            "__ZN4absl12lts_2024072215ToDoubleMinutesENS0_8DurationE",
            "__ZNK13sentencepiece31ImmutableNBestSentencePieceText11nbests_sizeEv",
            "_ggml_compute_forward_conv_transpose_1d",
            "__ZN6google8protobuf2io16FileOutputStream23CopyingFileOutputStream5CloseEv",
            "_ggml_compute_forward_abs",
            "__ZN4absl12lts_2024072216TimeFromTimespecE8timespec",
            "__ZN4absl12lts_2024072214flags_internal7UnparseEy",
            "__ZN13sentencepiece31SentencePieceText_SentencePieceD2Ev",
            "__ZN4absl12lts_2024072214flags_internal13AbslParseFlagENS0_11string_viewEPxPNSt3__112basic_stringIcNS4_11char_traitsIcEENS4_9allocatorIcEEEE",
            "__ZN6google8protobuf8internal12ExtensionSet4SwapEPKNS0_11MessageLiteEPS2_",
            "_iq3xs_init_impl",
            "_ggml_graph_print",
            "_ggml_sgn_inplace",
            "__ZN6google8protobuf21WebSafeBase64UnescapeEPKciPci",
            "_ggml_compute_forward_step",
            "__ZNK13sentencepiece22SentencePieceProcessor6DecodeERKNSt3__16vectorIiNS1_9allocatorIiEEEEPNS_17SentencePieceTextE",
            "__ZN4absl12lts_202407227uint128C1Ef",
            "__ZN6google8protobuf2io18IstreamInputStream25CopyingIstreamInputStreamC1EPNSt3__113basic_istreamIcNS4_11char_traitsIcEEEE",
            "__ZN6google8protobuf14FatalExceptionD0Ev",
            "__ZN13sentencepiece17SentencePieceText9MergeFromERKS0_",
            "_ggml_quantize_mat_q8_K_4x8",
            "_dequantize_row_tq1_0",
            "__ZN13sentencepiece4word5ModelC2ERKNS_10ModelProtoE",
            "__ZN13sentencepiece14NormalizerSpecD2Ev",
            "_ggml_compute_forward_pool_1d",
            "__ZN4absl12lts_2024072219str_format_internal16ParsedFormatBaseC1ENS0_11string_viewEbSt16initializer_listINS0_23FormatConversionCharSetEE",
            "__ZN13sentencepiece17SentencePieceText12InternalSwapEPS0_",
            "_ggml_rope_multi",
            "__ZN35qvac_lib_inference_addon_mlc_marian16TranslationModel6reloadEv",
            "__ZN6google8protobuf2io16ArrayInputStreamC1EPKvii",
            "__ZN6google8protobuf4util15status_internal17IsUnauthenticatedERKNS2_6StatusE",
            "__ZN13sentencepiece17SentencePieceText21CheckTypeAndMergeFromERKN6google8protobuf11MessageLiteE",
            "__ZNK13sentencepiece22SentencePieceProcessor12SampleEncodeEN4absl12lts_2024072211string_viewEifPNSt3__16vectorIiNS4_9allocatorIiEEEE",
            "__ZN6google8protobuf2io19EpsCopyOutputStream22GetDirectBufferPointerEPPvPiPPh",
            "__ZN6google8protobuf8internal14WireFormatLite18InternalWriteGroupEiRKNS0_11MessageLiteEPhPNS0_2io19EpsCopyOutputStreamE",
            "__ZN6google8protobuf14FatalExceptionD1Ev",
            "_quantize_row_q5_0",
            "_ggml_backend_sched_set_eval_callback",
            "__ZN13sentencepiece7unigram7LatticeC1Ev",
            "__ZN6google8protobuf8internal13VerifyVersionEiiPKc",
            "__ZN13sentencepiece22SentencePieceProcessorD1Ev",
            "__ZN6google8protobuf8internal24InitProtobufDefaultsSlowEv",
            "_ggml_scale_inplace",
            "__ZNK6google8protobuf20stringpiece_internal11StringPiece17find_first_not_ofES2_m",
            "__ZN4absl12lts_2024072214flags_internal26ShortProgramInvocationNameEv",
            "__ZNK13sentencepiece22SentencePieceProcessor6DecodeERKNSt3__16vectorINS1_12basic_stringIcNS1_11char_traitsIcEENS1_9allocatorIcEEEENS6_IS8_EEEEPNS_17SentencePieceTextE",
            "_ggml_gemm_iq4_nl_4x4_q8_0",
            "_ggml_gelu_quick_inplace",
            "__ZNK13sentencepiece17SentencePieceText12ByteSizeLongEv",
            "_ggml_dup_inplace",
            "_ggml_new_tensor_2d",
            "_ggml_get_no_alloc",
            "__ZN4absl12lts_202407225FloorENS0_8DurationES1_",
            "_ggml_fp16_to_fp32_row",
            "__ZN6google8protobuf8internal18EpsCopyInputStream15ReadArenaStringEPKcPNS1_14ArenaStringPtrEPNS0_5ArenaE",
            "__ZN6google8protobuf2io25CopyingInputStreamAdaptor22AllocateBufferIfNeededEv",
            "__ZN6google8protobuf5Arena18CreateMaybeMessageIN13sentencepiece17SentencePieceTextEJEEEPT_PS1_DpOT0_",
            "__ZN6google8protobuf8internal12ExtensionSet8SetInt32EihiPKNS0_15FieldDescriptorE",
            "__ZN6google8protobuf2io19OstreamOutputStreamD2Ev",
            "__ZN4absl12lts_2024072214flags_internal15DynValueDeleterC1EPFPvNS1_6FlagOpEPKvS3_S3_E",
            "__ZN13sentencepiece10ModelProto5ClearEv",
            "__ZN6google8protobuf8internal14WireFormatLite20InternalWriteMessageEiRKNS0_11MessageLiteEiPhPNS0_2io19EpsCopyOutputStreamE",
            "__ZN6google8protobuf10SimpleItoaEx",
            "__ZN4absl12lts_2024072214flags_internal13AbslParseFlagENS0_11string_viewEPNS0_7uint128EPNSt3__112basic_stringIcNS5_11char_traitsIcEENS5_9allocatorIcEEEE",
            "_ggml_vec_dot_bf16",
            "__ZN6google8protobuf4util15status_internal20IsFailedPreconditionERKNS2_6StatusE",
            "__ZN6google8protobuf7uint128dVERKS1_",
            "__ZN6google8protobuf8internal14ArenaStringPtr7MutableERKNS1_10LazyStringEPNS0_5ArenaE",
            "__Z8nmt_freeP11nmt_context",
            "__ZNK13sentencepiece14NormalizerSpec11GetTypeNameEv",
            "__ZN4absl12lts_2024072213base_internal22ThrowStdUnderflowErrorEPKc",
            "_ggml_backend_reg_count",
            "__ZN13sentencepiece24ModelProto_SentencePieceC2EPN6google8protobuf5ArenaEb",
            "__ZN4absl12lts_2024072213base_internal30CurrentThreadIdentityIfPresentEv",
            "_ggml_is_3d",
            "__ZN4absl12lts_2024072214flags_internal8FlagImpl11SetCallbackEPFvvE",
            "__ZN6google8protobuf8internal18PackedDoubleParserEPvPKcPNS1_12ParseContextE",
            "__ZN4absl12lts_202407225Mutex14EnableDebugLogEPKc",
            "__ZN4absl12lts_2024072213base_internal21ThrowStdOverflowErrorERKNSt3__112basic_stringIcNS2_11char_traitsIcEENS2_9allocatorIcEEEE",
            "__ZN13sentencepiece24ModelProto_SentencePiece9MergeFromERKS0_",
            "__ZN6google8protobuf8internal14WireFormatLite18WriteSFixed64ArrayEPKxiPNS0_2io17CodedOutputStreamE",
            "__ZNK4absl12lts_2024072214flags_internal8FlagImpl18ValidateInputValueENS0_11string_viewE",
            "__ZNK4absl12lts_2024072214flags_internal8FlagImpl8FilenameEv",
            "__ZN6google8protobuf8internal12ExtensionSet9SetUInt64EihyPKNS0_15FieldDescriptorE",
            "__ZNK13sentencepiece4util6Status8ToStringEv",
            "__ZN6google8protobuf2io19EpsCopyOutputStream16WriteRawFallbackEPKviPh",
            "__ZN6google8protobuf8internal20RepeatedPtrFieldBase13DestroyProtosEv",
            "__ZN6google8protobuf8internal12ExtensionSet15SetRepeatedBoolEiib",
            "__ZNK4absl12lts_2024072213time_internal4cctz12TimeZoneInfo14PrevTransitionERKNSt3__16chrono10time_pointINS5_12system_clockENS5_8durationIxNS4_5ratioILl1ELl1EEEEEEEPNS2_9time_zone16civil_transitionE",
            "__ZN4absl12lts_2024072224synchronization_internal13PthreadWaiter9TimedWaitENS1_13KernelTimeoutE",
            "__ZNK13sentencepiece14ModelInterface9unk_pieceEv",
            "__ZN6google8protobuf15CEscapeInternalEPKciPcibb",
            "__ZN4absl12lts_2024072224synchronization_internal10MutexDelayEii",
            "__ZN6google8protobuf25CalculateBase64EscapedLenEi",
            "__ZN35qvac_lib_inference_addon_mlc_marian16TranslationModelD0Ev",
            "_ggml_time_ms",
            "__ZN4absl12lts_202407225TruncENS0_8DurationES1_",
            "__ZN4absl12lts_202407227CondVar14EnableDebugLogEPKc",
            "_dequantize_row_q3_K",
            "__ZNK13sentencepiece7unigram7Lattice8bos_nodeEv",
            "__ZNK4absl12lts_2024072214flags_internal8FlagImpl17ModificationCountEv",
            "__ZN4absl12lts_2024072213base_internal24RegisterSpinLockProfilerEPFvPKvxE",
            "_ggml_vec_dot_iq1_s_q8_K",
            "_ggml_compute_forward_neg",
            "__ZN13sentencepiece22SetRandomGeneratorSeedEj",
            "_ggml_cpu_has_wasm_simd",
            "__ZN13sentencepiece31SentencePieceText_SentencePieceC2EPN6google8protobuf5ArenaEb",
            "__ZN13sentencepiece14SplitIntoWordsEN4absl12lts_2024072211string_viewEbb",
            "_ggml_rope_ext",
            "__ZN6google8protobuf4util15status_internal16UnavailableErrorENS0_20stringpiece_internal11StringPieceE",
            "_ggml_cpu_has_neon",
            "_dequantize_row_iq1_m",
            "__ZN4absl12lts_202407227CondVar10WaitCommonEPNS0_5MutexENS0_24synchronization_internal13KernelTimeoutE",
            "_ggml_backend_reg_get",
            "__ZNK13sentencepiece7unigram7Lattice16CalculateEntropyEf",
            "__ZNK6google8protobuf8internal12ExtensionSet13NumExtensionsEv",
            "_ggml_backend_metal_supports_family",
            "__ZN4absl12lts_2024072216EqualsIgnoreCaseENS0_11string_viewES1_",
            "__ZN6google8protobuf2io19EpsCopyOutputStream15WriteAliasedRawEPKviPh",
            "__ZNK13sentencepiece49ImmutableSentencePieceText_ImmutableSentencePiece5beginEv",
            "__ZN6google8protobuf2io18IstreamInputStream25CopyingIstreamInputStreamD1Ev",
            "__ZNK13sentencepiece22SentencePieceProcessor6bos_idEv",
            "__ZN4absl12lts_2024072218container_internal19HashSetResizeHelper24InitControlBytesAfterSooEPNS1_6ctrl_tES3_m",
            "_ggml_cpu_has_riscv_v",
            "__ZN4absl12lts_2024072213base_internal8SpinLockC1ENS1_14SchedulingModeE",
            "__ZN6google8protobuf8internal12ExtensionSet24RegisterMessageExtensionEPKNS0_11MessageLiteEihbbS5_PFPKcS7_PNS1_12ParseContextEE",
            "__ZN13sentencepiece9character5ModelD1Ev",
            "__ZN6google8protobuf2io15FileInputStream22CopyingFileInputStreamC2Ei",
            "_ggml_backend_cpu_reg",
            "_ggml_mul",
            "_ggml_compute_forward_sqr",
            "__ZNK4absl12lts_2024072211string_view13find_first_ofES1_m",
            "_ggml_vec_dot_iq2_s_q8_K",
            "__ZN13sentencepiece24ModelProto_SentencePieceD1Ev",
            "__ZN6google8protobuf8internal12ExtensionSet9Extension4FreeEv",
            "_ggml_new_tensor_1d",
            "__ZN4absl12lts_2024072219str_format_internal14FormatSinkImpl15PutPaddedStringENS0_11string_viewEiib",
            "__ZNK6google8protobuf8internal12ExtensionSet10FindOrNullEi",
            "__ZN6google8protobuf8internal14WireFormatLite9SkipFieldEPNS0_2io16CodedInputStreamEj",
            "__ZN13sentencepiece22NBestSentencePieceTextD0Ev",
            "__ZN4absl12lts_2024072219str_format_internal16ConvertFloatImplEfRKNS1_24FormatConversionSpecImplEPNS1_14FormatSinkImplE",
            "__ZN6google8protobuf15strto32_adaptorEPKcPPci",
            "__ZN13sentencepiece11string_util17UnicodeCharToUTF8Ej",
            "_ggml_set_i32_nd",
            "_ggml_backend_dev_by_type",
            "_ggml_gemv_q4_K_8x8_q8_K",
            "_ggml_backend_unload",
            "_ggml_conv_2d_s1_ph",
            "_ggml_backend_blas_reg",
            "_ggml_get_first_tensor",
            "_ggml_compute_forward_add",
            "__ZNK6google8protobuf11MessageLite21AppendPartialToStringEPNSt3__112basic_stringIcNS2_11char_traitsIcEENS2_9allocatorIcEEEE",
            "__ZNK6google8protobuf20stringpiece_internal11StringPiece5rfindEcm",
            "_ggml_concat",
            "__ZN13sentencepiece31ImmutableNBestSentencePieceTextD0Ev",
            "_ggml_compute_forward_view",
            "_quantize_row_q8_K_ref",
            "__ZN4ggml3cpu6repack4gemmI10block_q4_0Lx8ELx4EL9ggml_type8EEEviPfmPKvS7_ii",
            "__ZN6google8protobuf8internal14WireFormatLite11WriteSInt64EixPNS0_2io17CodedOutputStreamE",
            "__ZN13sentencepiece11TrainerSpecD1Ev",
            "__ZN13sentencepiece10ModelProtoD0Ev",
            "__ZN6google8protobuf5Arena18CreateMaybeMessageIN13sentencepiece19SelfTestData_SampleEJEEEPT_PS1_DpOT0_",
            "_ggml_soft_max",
            "__ZN6google8protobuf8internal14WireFormatLite10UInt32SizeERKNS0_13RepeatedFieldIjEE",
            "_ggml_dup_tensor",
            "_ggml_cpu_has_avx_vnni",
            "__ZNK13sentencepiece22SentencePieceProcessor6statusEv",
            "__ZN13sentencepiece11string_util10EncodeUTF8EjPc",
            "__ZN6google8protobuf2io15FileInputStream22CopyingFileInputStreamC1Ei",
            "__ZN13sentencepiece31ImmutableNBestSentencePieceTextD1Ev",
            "__ZN4absl12lts_2024072210ToTimespecENS0_8DurationE",
            "__ZNK4absl12lts_2024072214flags_internal8FlagImpl12OneWordValueEv",
            "__ZN4absl12lts_202407225Mutex3FerEPNS0_13base_internal14PerThreadSynchE",
            "__ZN6google8protobuf8internal12ExtensionSet17SetRepeatedUInt64Eiiy",
            "_ggml_backend_dev_buffer_type",
            "_ggml_backend_dev_memory",
            "_ggml_leaky_relu",
            "_quantize_row_q8_0",
            "_ggml_vec_dot_q4_1_q8_1_generic",
            "_ggml_quantize_free",
            "_ggml_cont_2d",
            "__ZN4absl12lts_2024072219GetCurrentTimeNanosEv",
            "__ZN6google8protobuf2io15FileInputStream5CloseEv",
            "__ZN6google8protobuf8internal16PackedEnumParserEPvPKcPNS1_12ParseContextE",
            "_ggml_threadpool_resume",
            "__ZN4absl12lts_2024072219str_format_internal17FormatConvertImplEeNS1_24FormatConversionSpecImplEPNS1_14FormatSinkImplE",
            "__ZNK13sentencepiece22SentencePieceProcessor17ParseExtraOptionsEN4absl12lts_2024072211string_viewEPNSt3__16vectorINS0_11ExtraOptionENS4_9allocatorIS6_EEEE",
            "__ZN4absl12lts_2024072213time_internal4cctz14ParsePosixSpecERKNSt3__112basic_stringIcNS3_11char_traitsIcEENS3_9allocatorIcEEEEPNS2_13PosixTimeZoneE",
            "_ggml_custom_inplace",
            "__ZN13sentencepiece24ModelProto_SentencePiece21CheckTypeAndMergeFromERKN6google8protobuf11MessageLiteE",
            "_dequantize_row_q2_K",
            "_ggml_nelements",
            "__ZN6google8protobuf8internal12ExtensionSet13DeleteFlatMapEPKNS2_8KeyValueEt",
            "__ZN6google8protobuf8internal15ReadTagFallbackEPKcj",
            "_ggml_graph_size",
            "__ZN6google8protobuf8internal12ExtensionSetD1Ev",
            "__ZN4absl12lts_2024072214flags_internal13AbslParseFlagENS0_11string_viewEPsPNSt3__112basic_stringIcNS4_11char_traitsIcEENS4_9allocatorIcEEEE",
            "_ggml_get_type_traits",
            "__ZN6google8protobuf2io16FileOutputStream23CopyingFileOutputStreamC2Ei",
            "__ZN4absl12lts_2024072215ToDoubleSecondsENS0_8DurationE",
            "__ZN6google8protobuf2io18StringOutputStream4NextEPPvPi",
            "_quantize_row_q2_K",
            "__ZN6google8protobuf8internal12ExtensionSet22UnsafeArenaReleaseLastEi",
            "__ZN6google8protobuf8internal14WireFormatLite11WriteSInt32EiiPNS0_2io17CodedOutputStreamE",
            "__ZNK13sentencepiece17SentencePieceText13IsInitializedEv",
            "__ZN6google8protobuf17ReplaceCharactersEPNSt3__112basic_stringIcNS1_11char_traitsIcEENS1_9allocatorIcEEEEPKcc",
            "_ggml_map_custom1",
            "_quantize_tq1_0",
            "__ZN6google8protobuf8internal29CodedOutputStreamFieldSkipper9SkipFieldEPNS0_2io16CodedInputStreamEj",
            "__ZN13sentencepiece3bpe5ModelC2ERKNS_10ModelProtoE",
            "__ZN6google8protobuf8internal12ExtensionSet10RemoveLastEi",
            "__ZNK13sentencepiece31SentencePieceText_SentencePiece18_InternalSerializeEPhPN6google8protobuf2io19EpsCopyOutputStreamE",
            "_ggml_norm_inplace",
            "__ZN6google8protobuf8internal14WireFormatLite12WriteFixed32EijPNS0_2io17CodedOutputStreamE",
            "__ZNK6google8protobuf8internal12ExtensionSet8GetInt32Eii",
            "__ZN6google8protobuf2io19EpsCopyOutputStream18WriteStringOutlineEjRKNSt3__112basic_stringIcNS3_11char_traitsIcEENS3_9allocatorIcEEEEPh",
            "_ggml_rope_inplace",
            "__ZN6google8protobuf22CleanStringLineEndingsEPNSt3__112basic_stringIcNS1_11char_traitsIcEENS1_9allocatorIcEEEEb",
            "__ZN13sentencepiece9character5ModelD2Ev",
            "__ZN6google8protobuf8internal24GeneratedExtensionFinder4FindEiPNS1_13ExtensionInfoE",
            "__ZN6google8protobuf2io19OstreamOutputStreamC2EPNSt3__113basic_ostreamIcNS3_11char_traitsIcEEEEi",
            "_ggml_rope_ext_inplace",
            "__ZN4absl12lts_2024072214flags_internal7UnparseEi",
            "__ZN4absl12lts_202407228DurationmLEd",
            "_ggml_vec_silu_f32",
            "_ggml_backend_free",
            "_quantize_iq2_s",
            "__ZN6google8protobuf4util15status_internal6StatusC1ENS2_10StatusCodeENS0_20stringpiece_internal11StringPieceE",
            "__ZN13sentencepiece12SelfTestDataC2EPN6google8protobuf5ArenaEb",
            "__ZNK6google8protobuf20stringpiece_internal11StringPiece17find_first_not_ofEcm",
            "__ZN6google8protobuf13safe_strtou64ERKNSt3__112basic_stringIcNS1_11char_traitsIcEENS1_9allocatorIcEEEEPy",
            "_ggml_map_custom3_inplace",
            "__ZN6google8protobuf5Arena31AllocateAlignedWithHookForArrayEmPKSt9type_info",
            "__ZN4absl12lts_2024072213base_internal20ThrowStdRuntimeErrorEPKc",
            "_ggml_backend_sched_graph_compute_async",
            "__ZN6google8protobuf11MessageLite22ParsePartialFromStringERKNSt3__112basic_stringIcNS2_11char_traitsIcEENS2_9allocatorIcEEEE",
            "_ggml_mul_mat_set_prec",
            "_ggml_get_max_tensor_size",
            "_ggml_rwkv_wkv6",
            "_ggml_ssm_scan",
            "_ggml_vec_dot_iq4_nl_q8_0",
            "__ZNK6google8protobuf8internal12ExtensionSet13IsInitializedEv",
            "__ZN4absl12lts_202407226FromTMERK2tmNS0_8TimeZoneE",
            "__ZN6google8protobuf2io19OstreamOutputStream26CopyingOstreamOutputStreamC2EPNSt3__113basic_ostreamIcNS4_11char_traitsIcEEEE",
            "__ZN13sentencepiece24ModelProto_SentencePiece8CopyFromERKS0_",
            "_dequantize_row_iq1_s",
            "_ggml_compute_forward_roll",
            "__ZN4absl12lts_2024072215AsciiStrToLowerEPNSt3__112basic_stringIcNS1_11char_traitsIcEENS1_9allocatorIcEEEE",
            "__ZN28qvac_lib_inference_addon_cpp5AddonIN35qvac_lib_inference_addon_mlc_marian16TranslationModelEE12getNextPieceERNSt3__112basic_stringIcNS4_11char_traitsIcEENS4_9allocatorIcEEEEm",
            "__ZN13sentencepiece7unigram7Lattice7ViterbiEv",
            "__ZN6google8protobuf8internal11WriteVarintEjyPNSt3__112basic_stringIcNS2_11char_traitsIcEENS2_9allocatorIcEEEE",
            "_ggml_get_mem_size",
            "__ZN6google8protobuf8internal20PackedSFixed32ParserEPvPKcPNS1_12ParseContextE",
            "__ZNK13sentencepiece24ModelProto_SentencePiece11GetTypeNameEv",
            "__ZN4absl12lts_2024072220ToDoubleMicrosecondsENS0_8DurationE",
            "__ZN4absl12lts_2024072215ToChronoMinutesENS0_8DurationE",
            "_ggml_repeat_4d",
            "__ZN6google8protobuf8internal14WireFormatLite10WriteBytesEiRKNSt3__112basic_stringIcNS3_11char_traitsIcEENS3_9allocatorIcEEEEPNS0_2io17CodedOutputStreamE",
            "__ZN13sentencepiece22SentencePieceProcessor13SetVocabularyERKNSt3__16vectorIN4absl12lts_2024072211string_viewENS1_9allocatorIS5_EEEE",
            "__ZN6google8protobuf8internal18EpsCopyInputStream4NextEv",
            "_ggml_cpu_has_avx512_bf16",
            "__ZN13sentencepiece7logging14SetMinLogLevelEi",
            "__ZN6google8protobuf11MessageLite14ParseFromArrayEPKvi",
            "__ZN4absl12lts_2024072213hash_internal15MixingHashState16LowLevelHashImplEPKhm",
            "__ZN6google8protobuf8internal12ExtensionSet6InsertEi",
            "__ZN6google8protobuf8internal18PackedUInt64ParserEPvPKcPNS1_12ParseContextE",
            "__Z23nmt_model_is_indictransP11nmt_context",
            "__ZNK13sentencepiece26ImmutableSentencePieceText11pieces_sizeEv",
            "__ZN6google8protobuf8internal12ExtensionSet7AddBoolEihbbPKNS0_15FieldDescriptorE",
            "__ZN6google8protobuf2io16CodedInputStream25PrintTotalBytesLimitErrorEv",
            "__ZN6google8protobuf22CleanStringLineEndingsERKNSt3__112basic_stringIcNS1_11char_traitsIcEENS1_9allocatorIcEEEEPS7_b",
            "_quantize_iq2_xs",
            "_quantize_iq3_s",
            "__ZN6google8protobuf2io26CopyingOutputStreamAdaptorC1EPNS1_19CopyingOutputStreamEi",
            "__ZNK6google8protobuf11MessageLite22SerializeToCodedStreamEPNS0_2io17CodedOutputStreamE",
            "__ZNK6google8protobuf11MessageLite32SerializePartialToZeroCopyStreamEPNS0_2io20ZeroCopyOutputStreamE",
            "__ZNK13sentencepiece14ModelInterface9bos_pieceEv",
            "__ZN4absl12lts_2024072213base_internal12SpinLockWaitEPNSt3__16atomicIjEEiPKNS1_22SpinLockWaitTransitionENS1_14SchedulingModeE",
            "_ggml_log_inplace",
            "_ggml_unary",
            "__ZN6google8protobuf4util15status_internal21DeadlineExceededErrorENS0_20stringpiece_internal11StringPieceE",
            "__ZN4absl12lts_202407225Mutex7TryLockEv",
            "_ggml_backend_view_init",
            "_ggml_free",
            "__ZN13sentencepiece10ModelProto14_InternalParseEPKcPN6google8protobuf8internal12ParseContextE",
            "__ZN4absl12lts_2024072214flags_internal8FlagImpl5WriteEPKv",
            "_ggml_graph_n_nodes",
            "__ZN4absl12lts_2024072223FindLongestCommonPrefixENS0_11string_viewES1_",
            "__ZN13sentencepiece24ModelProto_SentencePieceC1ERKS0_",
            "_ggml_graph_compute",
            "__ZN6google8protobuf2io25CopyingInputStreamAdaptor4NextEPPKvPi",
            "__ZN6google8protobuf8internal16FunctionClosure0D0Ev",
            "__ZNK13sentencepiece7unigram5Model20SampleEncodeAndScoreEN4absl12lts_2024072211string_viewEfibb",
            "__ZN13sentencepiece7unigram7Lattice6InsertEii",
            "_ggml_gemv_q4_0_4x4_q8_0",
            "__ZN4absl12lts_2024072213base_internal19ThrowStdDomainErrorEPKc",
            "__ZN4absl12lts_2024072219str_format_internal8SnprintFEPcmNS1_21UntypedFormatSpecImplENS0_4SpanIKNS1_13FormatArgImplEEE",
            "__ZN6google8protobuf8internal14WireFormatLite16VerifyUtf8StringEPKciNS2_9OperationES4_",
            "__ZN6google8protobuf2io18StringOutputStream6BackUpEi",
            "_ggml_backend_metal_init",
            "__ZN4absl12lts_2024072224synchronization_internal20CreateThreadIdentityEv",
            "_ggml_can_repeat",
            "__ZN6google8protobuf2io26CopyingOutputStreamAdaptorC2EPNS1_19CopyingOutputStreamEi",
            "__ZN13sentencepiece7unigram7Lattice6SampleEf",
            "__ZN6google8protobuf8internal21UnknownGroupLiteParseEPNSt3__112basic_stringIcNS2_11char_traitsIcEENS2_9allocatorIcEEEEPKcPNS1_12ParseContextE",
            "__ZNK13sentencepiece22SentencePieceProcessor17ApplyExtraOptionsERKNSt3__16vectorINS0_11ExtraOptionENS1_9allocatorIS3_EEEEPNS_17SentencePieceTextE",
            "__ZN13sentencepiece31SentencePieceText_SentencePieceD0Ev",
            "__ZN6google8protobuf8internal10LogMessagelsERKNS0_4util15status_internal6StatusE",
            "__ZN13sentencepiece4util6StatusC2ERKS1_",
            "__ZN6google8protobuf2io19OstreamOutputStream26CopyingOstreamOutputStreamD2Ev",
            "__ZNK6google8protobuf20stringpiece_internal11StringPiece4findEcm",
            "_ggml_fp32_to_fp16",
            "__ZNK4absl12lts_2024072211string_view5rfindES1_m",
            "__ZN4absl12lts_2024072219str_format_internal16ParsedFormatBaseC2ENS0_11string_viewEbSt16initializer_listINS0_23FormatConversionCharSetEE",
            "__ZN4absl12lts_2024072221RegisterCondVarTracerEPFvPKcPKvE",
            "__ZN6google8protobuf2io16ArrayInputStream4NextEPPKvPi",
            "__ZN13sentencepiece26ImmutableSentencePieceTextD0Ev",
            "__ZN13sentencepiece37ModelProto_SentencePiece_Type_IsValidEi",
            "__ZN4absl12lts_202407225Mutex18ForgetDeadlockInfoEv",
            "_ggml_backend_tensor_memset",
            "_ggml_pool_2d_back",
            "__ZN6google8protobuf8internal20RepeatedPtrFieldBase14InternalExtendEi",
            "__ZN4absl12lts_2024072213time_internal4cctz9time_zone4Impl24ClearTimeZoneMapTestOnlyEv",
            "__ZN6google8protobuf4util15status_internal10IsDataLossERKNS2_6StatusE",
            "_ggml_compute_forward_pool_2d",
            "__ZN6google8protobuf8internal17PackedFloatParserEPvPKcPNS1_12ParseContextE",
            "__Z23nmt_model_type_readableP11nmt_context",
            "__ZN6google8protobuf2io16FileOutputStream23CopyingFileOutputStreamC1Ei",
            "__ZN6google8protobuf8internal14ArenaStringPtr3SetEONSt3__112basic_stringIcNS3_11char_traitsIcEENS3_9allocatorIcEEEEPNS0_5ArenaE",
            "__ZN6google8protobuf6StrCatERKNS0_7strings8AlphaNumES4_S4_S4_S4_",
            "_ggml_gelu_inplace",
            "__ZN6google8protobuf4util15status_internal15IsUnimplementedERKNS2_6StatusE",
            "_ggml_gallocr_new_n",
            "_ggml_critical_section_start",
            "_ggml_view_1d",
            "__ZN13sentencepiece11string_util19IsStructurallyValidEN4absl12lts_2024072211string_viewE",
            "_ggml_gallocr_alloc_graph",
            "__ZN13sentencepiece14NormalizerSpecC2EPN6google8protobuf5ArenaEb",
            "__ZN4absl12lts_202407229StrAppendEPNSt3__112basic_stringIcNS1_11char_traitsIcEENS1_9allocatorIcEEEERKNS0_8AlphaNumESB_SB_",
            "_ggml_vec_dot_f16",
            "__ZN6google8protobuf8internal16FunctionClosure0D2Ev",
            "__ZN13sentencepiece10filesystem15NewReadableFileEN4absl12lts_2024072211string_viewEb",
            "_ggml_diag_mask_zero",
            "__ZN4absl12lts_2024072214flags_internal7UnparseEs",
            "__ZN13sentencepiece10normalizer10NormalizerD0Ev",
            "__ZN6google8protobuf8internal12FieldSkipper9SkipFieldEPNS0_2io16CodedInputStreamEj",
            "_quantize_row_q4_0",
            "__ZNK6google8protobuf8internal12ExtensionSet18MessageSetByteSizeEv",
            "__ZN4absl12lts_202407225MutexD1Ev",
            "_ggml_backend_buffer_is_host",
            "__ZN4ggml3cpu6repack6repackI10block_q4_KLx8ELx8EEEiP11ggml_tensorPKvm",
            "__ZN4absl12lts_202407228ByLengthC2El",
            "__ZN6google8protobuf4util15status_internal13InternalErrorENS0_20stringpiece_internal11StringPieceE",
            "__ZN6google8protobuf2io16CodedInputStream12SkipFallbackEii",
            "_ggml_status_to_string",
            "__ZN35qvac_lib_inference_addon_mlc_marian16TranslationModel7processERKNSt3__112basic_stringIcNS1_11char_traitsIcEENS1_9allocatorIcEEEE",
            "_ggml_set_1d_inplace",
            "_ggml_compute_forward_tanh",
            "__ZN6google8protobuf8internal14WireFormatLite30ReadPackedEnumPreserveUnknownsEPNS0_2io16CodedInputStreamEiPFbiEPNS3_17CodedOutputStreamEPNS0_13RepeatedFieldIiEE",
            "_ggml_print_object",
            "__ZN6google8protobuf8internal30FindExtensionLazyEagerVerifyFnEPKNS0_11MessageLiteEi",
            "_ggml_gelu_erf",
            "_ggml_backend_init_best",
            "__ZN4absl12lts_2024072212ToChronoTimeENS0_4TimeE",
            "_ggml_reshape_3d",
            "_ggml_view_tensor",
            "__ZN6google8protobuf7strings15Utf8SafeCEscapeERKNSt3__112basic_stringIcNS2_11char_traitsIcEENS2_9allocatorIcEEEE",
            "__ZN4absl12lts_2024072213time_internal4cctz12TimeZoneLibCC2ERKNSt3__112basic_stringIcNS4_11char_traitsIcEENS4_9allocatorIcEEEE",
            "__ZNK4absl12lts_202407228TimeZone14NextTransitionENS0_4TimeEPNS1_15CivilTransitionE",
            "__ZN6google8protobuf8internal12ExtensionSet9AddDoubleEihbdPKNS0_15FieldDescriptorE",
            "_ggml_graph_get_grad_acc",
            "__ZN4absl12lts_2024072213time_internal4cctz12TimeZoneInfo4LoadERKNSt3__112basic_stringIcNS4_11char_traitsIcEENS4_9allocatorIcEEEE",
            "__ZN6google8protobuf2io16CodedInputStream15ReadTagFallbackEj",
            "__ZN6google8protobuf2io16CodedInputStream22GetDirectBufferPointerEPPKvPi",
            "__ZN13sentencepiece4util8StrErrorEi",
            "__ZN6google8protobuf8internal29CodedOutputStreamFieldSkipper11SkipMessageEPNS0_2io16CodedInputStreamE",
            "__ZNK6google8protobuf8internal12ExtensionSet49InternalSerializeMessageSetWithCachedSizesToArrayEPKNS0_11MessageLiteEPhPNS0_2io19EpsCopyOutputStreamE",
            "__ZN6google8protobuf15FastHexToBufferEiPc",
            "__ZN4ggml3cpu6repack4gemmI10block_q4_0Lx4ELx4EL9ggml_type8EEEviPfmPKvS7_ii",
            "__ZN13sentencepiece4util6StatusC1ENS0_10StatusCodeEN4absl12lts_2024072211string_viewE",
            "__ZN4absl12lts_202407225Mutex17IncrementSynchSemEPS1_PNS0_13base_internal14PerThreadSynchE",
            "__ZN6google8protobuf2io15FileInputStream4SkipEi",
            "__ZNK13sentencepiece7unigram7Lattice9end_nodesEi",
            "__ZNK13sentencepiece22SentencePieceProcessor6unk_idEv",
            "__ZN4absl12lts_202407229StrAppendEPNSt3__112basic_stringIcNS1_11char_traitsIcEENS1_9allocatorIcEEEERKNS0_8AlphaNumESB_SB_SB_",
            "__ZN6google8protobuf2io16FileOutputStreamC1Eii",
            "__ZN13sentencepiece11ByteToPieceEh",
            "__ZN13sentencepiece10ModelProtoC2ERKS0_",
            "__ZN13sentencepiece10normalizer10NormalizerD1Ev",
            "__ZN13sentencepiece19SelfTestData_SampleD2Ev",
            "__ZN6google8protobuf11MessageLite15ParseFromStringERKNSt3__112basic_stringIcNS2_11char_traitsIcEENS2_9allocatorIcEEEE",
            "__ZNK6google8protobuf20stringpiece_internal11StringPiece4findES2_m",
            "_ggml_backend_buffer_clear",
            "_ggml_cpu_fp32_to_fp16",
            "__ZN35qvac_lib_inference_addon_mlc_marian16TranslationModel20indictransPreProcessERKNSt3__112basic_stringIcNS1_11char_traitsIcEENS1_9allocatorIcEEEE",
            "_ggml_compute_forward_sum",
            "__ZN6google8protobuf8internal14WireFormatLite9ReadBytesEPNS0_2io16CodedInputStreamEPPNSt3__112basic_stringIcNS6_11char_traitsIcEENS6_9allocatorIcEEEE",
            "__ZN13sentencepiece19SelfTestData_SampleC1ERKS0_",
            "__ZN6google8protobuf25CalculateBase64EscapedLenEib",
            "_ggml_silu_back",
            "__ZN6google8protobuf8internal12ExtensionSet20FindOrNullInLargeMapEi",
            "_dequantize_row_iq4_xs",
            "__ZN4absl12lts_2024072213base_internal8SpinLock16EncodeWaitCyclesExx",
            "__ZN4absl12lts_202407227ToUDateENS0_4TimeE",
            "__ZN4ggml3cpu17extra_buffer_typeD1Ev",
            "__ZN6google8protobuf4util15status_internal13DataLossErrorENS0_20stringpiece_internal11StringPieceE",
            "__ZN4absl12lts_202407225Mutex13ReaderTryLockEv",
            "__ZN6google8protobuf8internal12ExtensionSet10AddMessageEihRKNS0_11MessageLiteEPKNS0_15FieldDescriptorE",
            "__ZN13sentencepiece11TrainerSpec12InternalSwapEPS0_",
            "__ZN4absl12lts_2024072214flags_internal13AbslParseFlagENS0_11string_viewEPNSt3__16vectorINS3_12basic_stringIcNS3_11char_traitsIcEENS3_9allocatorIcEEEENS8_ISA_EEEEPSA_",
            "_ggml_quantize_requires_imatrix",
            "_ggml_compute_forward_custom",
            "__ZNK6google8protobuf20stringpiece_internal11StringPiece12CopyToStringEPNSt3__112basic_stringIcNS3_11char_traitsIcEENS3_9allocatorIcEEEE",
            "_ggml_tallocr_alloc",
            "_ggml_custom_4d",
            "__ZN6google8protobuf8internal15ThreadSafeArena22GetSerialArenaFallbackEPv",
            "_ggml_format_name",
            "__ZN6google8protobuf2io20ZeroCopyOutputStream15WriteAliasedRawEPKvi",
            "__ZN4absl12lts_2024072219str_format_internal17FormatConvertImplEdNS1_24FormatConversionSpecImplEPNS1_14FormatSinkImplE",
            "__ZN6google8protobuf8internal14WireFormatLite10WriteInt64EixPNS0_2io17CodedOutputStreamE",
            "__ZN6google8protobuf14FatalExceptionD2Ev",
            "__ZN6google8protobuf10SimpleItoaEj",
            "__ZN13sentencepiece12SelfTestData14_InternalParseEPKcPN6google8protobuf8internal12ParseContextE",
            "_ggml_is_empty",
            "__ZN6google8protobuf8internal10LogMessagelsEPv",
            "__ZN4absl12lts_2024072224synchronization_internal12PerThreadSem23GetThreadBlockedCounterEv",
            "__ZN6google8protobuf4util15status_internal18IsDeadlineExceededERKNS2_6StatusE",
            "__ZNK13sentencepiece22SentencePieceProcessor6DecodeERKNSt3__16vectorIN4absl12lts_2024072211string_viewENS1_9allocatorIS5_EEEEPNS1_12basic_stringIcNS1_11char_traitsIcEENS6_IcEEEE",
            "__ZNK13sentencepiece7unigram5Model9PieceToIdEN4absl12lts_2024072211string_viewE",
            "__ZNK35qvac_lib_inference_addon_mlc_marian16TranslationModel12runtimeStatsEv",
            "__ZNK4absl12lts_2024072213time_internal4cctz12TimeZoneInfo14NextTransitionERKNSt3__16chrono10time_pointINS5_12system_clockENS5_8durationIxNS4_5ratioILl1ELl1EEEEEEEPNS2_9time_zone16civil_transitionE",
            "_quantize_q5_1",
            "_ggml_cpu_has_vxe",
            "__ZN13sentencepiece27TrainerSpec_ModelType_ParseERKNSt3__112basic_stringIcNS0_11char_traitsIcEENS0_9allocatorIcEEEEPNS_21TrainerSpec_ModelTypeE",
            "__ZN4absl12lts_2024072214flags_internal13AbslParseFlagENS0_11string_viewEPmPNSt3__112basic_stringIcNS4_11char_traitsIcEENS4_9allocatorIcEEEE",
            "__ZN6google8protobuf8internal18PackedUInt32ParserEPvPKcPNS1_12ParseContextE",
            "__ZN4absl12lts_2024072214ToInt64SecondsENS0_8DurationE",
            "__ZN4absl12lts_2024072216numbers_internal17safe_strto64_baseENS0_11string_viewEPxi",
            "__ZNK6google8protobuf11MessageLite25SerializePartialToOstreamEPNSt3__113basic_ostreamIcNS2_11char_traitsIcEEEE",
            "_ggml_im2col_back",
            "__ZN13sentencepiece17SentencePieceText8CopyFromERKS0_",
            "__ZN6google8protobuf8internal12ExtensionSet17SetRepeatedUInt32Eiij",
            "__ZNK6google8protobuf11MessageLite24SerializePartialAsStringEv",
            "__ZN6google8protobuf4util15status_internallsERNSt3__113basic_ostreamIcNS3_11char_traitsIcEEEERKNS2_6StatusE",
            "__ZN6google8protobuf8internal10LogMessagelsEl",
            "__ZNK13sentencepiece22NBestSentencePieceText12ByteSizeLongEv",
            "__ZN6google8protobuf4util15status_internal6StatusC2ENS2_10StatusCodeENS0_20stringpiece_internal11StringPieceE",
            "_bare_get_module_name_v0",
            "__ZN13sentencepiece11string_util10DecodeUTF8EPKcS2_Pm",
            "_ggml_backend_dev_supports_op",
            "__ZN6google8protobuf13StringReplaceERKNSt3__112basic_stringIcNS1_11char_traitsIcEENS1_9allocatorIcEEEES9_S9_b",
            "_ggml_vec_dot_q6_K_q8_K_generic",
            "_ggml_pad",
            "_ggml_set_i32_1d",
            "_ggml_compute_forward_win_part",
            "_ggml_vec_dot_iq1_m_q8_K",
            "_ggml_vec_dot_q4_1_q8_1",
            "__ZN6google8protobuf10SimpleItoaEy",
            "__ZN6google8protobuf8internal12ExtensionSet5ClearEv",
            "_ggml_backend_get_device",
            "__ZN13sentencepiece22SentencePieceProcessor13SetNormalizerEONSt3__110unique_ptrINS_10normalizer10NormalizerENS1_14default_deleteIS4_EEEE",
            "__ZN6google8protobuf8internal12ExtensionSet15SetRepeatedEnumEiii",
            "__ZNK13sentencepiece22NBestSentencePieceText13IsInitializedEv",
            "_ggml_backend_device_register",
            "__ZN4absl12lts_2024072213base_internal13LowLevelAlloc5ArenaC1Ej",
            "__ZNK13sentencepiece17SentencePieceText13SetCachedSizeEi",
            "__ZN6google8protobuf8internal10LogMessagelsERKNS0_7uint128E",
            "__ZNK13sentencepiece7unigram5Model11NBestEncodeEN4absl12lts_2024072211string_viewEi",
            "_ggml_vec_dot_f32",
            "__ZNK6google8protobuf8internal12ExtensionSet8GetInt64Eix",
            "__ZN35qvac_lib_inference_addon_mlc_marian16TranslationModel5resetEv",
            "_ggml_numa_init",
            "__ZNK4absl12lts_2024072213time_internal4cctz12TimeZoneInfo9LocalTimeExRKNS2_14TransitionTypeE",
            "__ZNK4absl12lts_2024072214flags_internal8FlagImpl9DataGuardEv",
            "_dequantize_row_q5_1",
            "__ZNK4absl12lts_2024072224synchronization_internal13KernelTimeout25MakeClockAbsoluteTimespecE9clockid_t",
            "__ZNK4absl12lts_2024072214flags_internal8FlagImpl17AtomicBufferValueEv",
            "_ggml_abs_inplace",
            "__ZN6google8protobuf8internal10LogMessagelsERKNS0_20stringpiece_internal11StringPieceE",
            "_ggml_graph_get_grad",
            "__ZNK13sentencepiece24ModelProto_SentencePiece13SetCachedSizeEi",
            "__ZN13sentencepiece7unigram5ModelD0Ev",
            "__ZNK6google8protobuf2io19EpsCopyOutputStream9ByteCountEPh",
            "__ZN6google8protobuf8internal14WireFormatLite10WriteInt32EiiPNS0_2io17CodedOutputStreamE",
            "__ZNK4absl12lts_2024072214flags_internal15DynValueDeleterclEPv",
            "__Z17nmt_model_n_vocabP11nmt_context",
            "_ggml_sub_inplace",
            "__ZN13sentencepiece22NBestSentencePieceTextD1Ev",
            "__ZN6google8protobuf2io26CopyingOutputStreamAdaptor22AllocateBufferIfNeededEv",
            "_ggml_gallocr_free",
            "__ZN4absl12lts_2024072213base_internal18ThrowStdRangeErrorERKNSt3__112basic_stringIcNS2_11char_traitsIcEENS2_9allocatorIcEEEE",
            "__ZN6google8protobuf12Base64EscapeEPKhiPci",
            "__ZN13sentencepiece31SentencePieceText_SentencePiece9MergeFromERKS0_",
            "__ZN4absl12lts_2024072213time_internal4cctz12TimeZoneInfo4MakeERKNSt3__112basic_stringIcNS4_11char_traitsIcEENS4_9allocatorIcEEEE",
            "__ZN6google8protobuf8internal10LogMessageD1Ev",
            "__ZN6google8protobuf9StrAppendEPNSt3__112basic_stringIcNS1_11char_traitsIcEENS1_9allocatorIcEEEERKNS0_7strings8AlphaNumESC_SC_SC_",
            "__ZN13sentencepiece11TrainerSpecC1ERKS0_",
            "__ZN4absl12lts_2024072214flags_internal15AbslUnparseFlagENS0_11string_viewE",
            "__ZN4absl12lts_2024072214flags_internal13AbslParseFlagENS0_11string_viewEPjPNSt3__112basic_stringIcNS4_11char_traitsIcEENS4_9allocatorIcEEEE",
            "__ZN13sentencepiece11TrainerSpecC2EPN6google8protobuf5ArenaEb",
            "__ZN13sentencepiece22NBestSentencePieceText9MergeFromERKS0_",
            "__ZN13sentencepiece24ModelProto_SentencePieceD2Ev",
            "__ZN4absl12lts_2024072214flags_internal14GetUsageConfigEv",
            "__ZN6google8protobuf8internal12ExtensionSet20LazyMessageExtension15UnusedKeyMethodEv",
            "__ZN6google8protobuf6StrCatERKNS0_7strings8AlphaNumES4_S4_S4_",
            "_ggml_backend_graph_copy",
            "__ZNK4absl12lts_2024072214flags_internal8FlagImpl6TypeIdEv",
            "__ZNK13sentencepiece10ModelProto11GetTypeNameEv",
            "__ZN6google8protobuf8internal10LogMessagelsEd",
            "__ZN4absl12lts_202407225Mutex20LockSlowWithDeadlineEPKNS0_6MuHowSEPKNS0_9ConditionENS0_24synchronization_internal13KernelTimeoutEi",
            "_ggml_view_3d",
            "_ggml_vec_dot_iq2_xs_q8_K",
            "_ggml_aligned_malloc",
            "__ZN6google8protobuf4util15status_internal17IsInvalidArgumentERKNS2_6StatusE",
            "_ggml_vec_soft_max_f32",
            "__ZN4absl12lts_2024072216numbers_internal19safe_strtou128_baseENS0_11string_viewEPNS0_7uint128Ei",
            "__ZN6google8protobuf8internal14ArenaStringPtr7MutableEPNS0_5ArenaE",
            "__ZN4absl12lts_202407228DurationdVEd",
            "__ZN4absl12lts_2024072213hash_internal19LowLevelHashLenGt16EPKvmyPKy",
            "__ZNK4absl12lts_202407225Mutex13AssertNotHeldEv",
            "__ZN13sentencepiece10normalizer10Normalizer25EncodePrecompiledCharsMapEN4absl12lts_2024072211string_viewES4_",
            "_quantize_q6_K",
            "__ZN4absl12lts_2024072213base_internal18ThrowStdOutOfRangeEPKc",
            "__ZN6google8protobuf13StringReplaceERKNSt3__112basic_stringIcNS1_11char_traitsIcEENS1_9allocatorIcEEEES9_S9_bPS7_",
            "__ZNK13sentencepiece11TrainerSpec13SetCachedSizeEi",
            "_ggml_fp32_to_bf16_row_ref",
            "_ggml_backend_buffer_copy_tensor",
            "__ZNK6google8protobuf8internal12ExtensionSet9Extension22MessageSetItemByteSizeEi",
            "__ZN6google8protobuf11LogSilencerC1Ev",
            "__ZN4absl12lts_202407229ConditionC1EPKb",
            "__ZNK4absl12lts_2024072214flags_internal8FlagImpl22ReadSequenceLockedDataEPv",
            "__ZN4absl12lts_202407224CeilENS0_8DurationES1_",
            "__ZN6google8protobuf8internal15ThreadSafeArena5ResetEv",
            "__ZN13sentencepiece19SelfTestData_SampleC1EPN6google8protobuf5ArenaEb",
            "_ggml_gemm_q4_0_4x4_q8_0",
            "__ZN4absl12lts_2024072218ToInt64NanosecondsENS0_8DurationE",
            "__ZN6google8protobuf8internal29UTF8CoerceToStructurallyValidENS0_20stringpiece_internal11StringPieceEPcc",
            "__ZN13sentencepiece17SentencePieceTextD0Ev",
            "_ggml_graph_dump_dot",
            "__ZN6google8protobuf7ClosureD1Ev",
            "__ZN4absl12lts_2024072216raw_log_internal27RegisterInternalLogFunctionEPFvNS0_11LogSeverityEPKciRKNSt3__112basic_stringIcNS5_11char_traitsIcEENS5_9allocatorIcEEEEE",
            "_ggml_backend_buffer_get_max_size",
            "_ggml_backend_reg_dev_count",
            "__ZN6google8protobuf10SimpleItoaEm",
            "__ZN6google8protobuf2io15FileInputStream22CopyingFileInputStream4ReadEPvi",
            "__ZNK13sentencepiece17SentencePieceText11GetTypeNameEv",
            "_ggml_cpu_extra_compute_forward",
            "__ZN4absl12lts_202407226StrCatERKNS0_8AlphaNumES3_",
            "__ZN6google8protobuf8internal24RepeatedStringTypeTraits23GetDefaultRepeatedFieldEv",
            "_ggml_unary_op_name",
            "__ZN13sentencepiece10ModelProto9MergeFromERKS0_",
            "_ggml_gemm_q4_K_8x8_q8_K_generic",
            "__ZN4absl12lts_2024072219str_format_internal10AppendPackEPNSt3__112basic_stringIcNS2_11char_traitsIcEENS2_9allocatorIcEEEENS1_21UntypedFormatSpecImplENS0_4SpanIKNS1_13FormatArgImplEEE",
            "__ZN4absl12lts_202407225MutexD2Ev",
            "_ggml_backend_dev_backend_reg",
            "__ZNK6google8protobuf8internal12ExtensionSet13ExtensionTypeEi",
            "__ZNK6google8protobuf11MessageLite14AppendToStringEPNSt3__112basic_stringIcNS2_11char_traitsIcEENS2_9allocatorIcEEEE",
            "_ggml_cpu_has_fma",
            "_ggml_upscale_ext",
            "__ZN4absl12lts_2024072213base_internal23ThrowStdInvalidArgumentERKNSt3__112basic_stringIcNS2_11char_traitsIcEENS2_9allocatorIcEEEE",
            "__ZNK13sentencepiece10normalizer10Normalizer15NormalizePrefixEN4absl12lts_2024072211string_viewE",
            "__ZNK13sentencepiece11TrainerSpec18_InternalSerializeEPhPN6google8protobuf2io19EpsCopyOutputStreamE",
            "__ZN13sentencepiece22SentencePieceProcessor21SetEncodeExtraOptionsEN4absl12lts_2024072211string_viewE",
            "__ZN6google8protobuf13safe_strtou32ERKNSt3__112basic_stringIcNS1_11char_traitsIcEENS1_9allocatorIcEEEEPj",
            "_ggml_vec_dot_tq2_0_q8_K_generic",
            "__ZNK6google8protobuf8internal12ExtensionSet10GetMessageEiRKNS0_11MessageLiteE",
            "__ZN6google8protobuf8internal14ArenaStringPtr14ClearToDefaultERKNS1_10LazyStringEPNS0_5ArenaE",
            "__ZNK13sentencepiece19SelfTestData_Sample13IsInitializedEv",
            "__ZNK4absl12lts_202407225Mutex10AssertHeldEv",
            "__ZN6google8protobuf11safe_strtobENS0_20stringpiece_internal11StringPieceEPb",
            "__ZN4absl12lts_2024072219str_format_internal17FormatConvertImplEPKwNS1_24FormatConversionSpecImplEPNS1_14FormatSinkImplE",
            "__ZN4absl12lts_2024072214flags_internal13MaskedPointer10MarkAsReadEv",
            "__ZN13sentencepiece22NBestSentencePieceText12InternalSwapEPS0_",
            "__ZN6google8protobuf2io16ArrayInputStream6BackUpEi",
            "__ZNK6google8protobuf11MessageLite25SerializeToFileDescriptorEi",
            "__ZN6google8protobuf11MessageLite15MergeFromStringERKNSt3__112basic_stringIcNS2_11char_traitsIcEENS2_9allocatorIcEEEE",
            "_ggml_reshape_4d",
            "__ZN6google8protobuf8internal12ExtensionSet26InternalExtensionMergeFromEPKNS0_11MessageLiteEiRKNS2_9ExtensionEPNS0_5ArenaE",
            "__ZNK6google8protobuf8internal12ExtensionSet12GetRefUInt32EiRKj",
            "__ZN6google8protobuf30WebSafeBase64EscapeWithPaddingENS0_20stringpiece_internal11StringPieceEPNSt3__112basic_stringIcNS3_11char_traitsIcEENS3_9allocatorIcEEEE",
            "_ggml_backend_sched_get_buffer_size",
            "__ZN6google8protobuf9StrAppendEPNSt3__112basic_stringIcNS1_11char_traitsIcEENS1_9allocatorIcEEEERKNS0_7strings8AlphaNumESC_SC_",
            "__ZN6google8protobuf2io16CodedInputStream23ReadVarintSizeAsIntSlowEv",
            "__ZN13sentencepiece22NBestSentencePieceTextC2ERKS0_",
            "__ZN6google8protobuf8internal16InternalMetadata7DoClearINSt3__112basic_stringIcNS4_11char_traitsIcEENS4_9allocatorIcEEEEEEvv",
            "__ZN6google8protobuf2io16FileOutputStreamD2Ev",
            "__ZNK13sentencepiece7unigram5Model16CalculateEntropyEN4absl12lts_2024072211string_viewEf",
            "__ZN6google8protobuf8internal12ExtensionSet9SetDoubleEihdPKNS0_15FieldDescriptorE",
            "_ggml_cos_inplace",
            "_ggml_cont_4d",
            "__ZN6google8protobuf2io19OstreamOutputStreamC1EPNSt3__113basic_ostreamIcNS3_11char_traitsIcEEEEi",
            "__ZN6google8protobuf22FastUInt64ToBufferLeftEyPc",
            "__ZN6google8protobuf8internal12ExtensionSet16SetRepeatedInt32Eiii",
            "__ZNK13sentencepiece22SentencePieceProcessor23mutable_normalizer_specEv",
            "__ZN4absl12lts_2024072213time_internal4cctz9time_zone4Impl12LoadTimeZoneERKNSt3__112basic_stringIcNS5_11char_traitsIcEENS5_9allocatorIcEEEEPS3_",
            "__Z39nmt_init_from_file_with_params_no_statePKc18nmt_context_params",
            "_ggml_relu_inplace",
            "_ggml_gemv_q4_0_8x8_q8_0",
            "__ZN13sentencepiece9character5ModelC2ERKNS_10ModelProtoE",
            "__ZNK4absl12lts_2024072213time_internal4cctz9time_zone6lookupERKNSt3__16chrono10time_pointINS5_12system_clockENS5_8durationIxNS4_5ratioILl1ELl1EEEEEEE",
            "__ZNK4absl12lts_2024072224synchronization_internal13KernelTimeout17ToChronoTimePointEv",
            "__ZNK13sentencepiece12SelfTestData12ByteSizeLongEv",
            "_quantize_row_q5_1_ref",
            "__ZNK6google8protobuf11MessageLite25InitializationErrorStringEv",
            "__ZN35qvac_lib_inference_addon_mlc_marian16TranslationModelC1ERKNSt3__112basic_stringIcNS1_11char_traitsIcEENS1_9allocatorIcEEEE",
            "__ZN6google8protobuf8internal14WireFormatLite10SInt64SizeERKNS0_13RepeatedFieldIxEE",
            "__ZN6google8protobuf5Arena18CreateMaybeMessageIN13sentencepiece22NBestSentencePieceTextEJEEEPT_PS1_DpOT0_",
            "__ZNK13sentencepiece11TrainerSpec11GetTypeNameEv",
            "__ZN6google8protobuf8internal20RepeatedPtrFieldBase7ReserveEi",
            "__ZN6google8protobuf8internal12ExtensionSet5EraseEi",
            "__ZN13sentencepiece7unigram5ModelD1Ev",
            "__ZN6google8protobuf8internal10LogMessagelsEc",
            "__ZN13sentencepiece3bpe5ModelC1ERKNS_10ModelProtoE",
            "_ggml_transpose",
            "_ggml_backend_synchronize",
            "__Z23nmt_reset_runtime_statsP11nmt_context",
            "__ZN4absl12lts_2024072218container_internal24GetHashRefForEmptyHasherERKNS1_12CommonFieldsE",
            "_ggml_backend_metal_set_abort_callback",
            "__ZN4absl12lts_202407228ByStringC2ENS0_11string_viewE",
            "__ZN4absl12lts_202407225Mutex24EnableInvariantDebuggingEPFvPvES2_",
            "__ZNK13sentencepiece10normalizer13PrefixMatcher11PrefixMatchEN4absl12lts_2024072211string_viewEPb",
            "__ZN4absl12lts_2024072213ToUnixSecondsENS0_4TimeE",
            "__ZNK6google8protobuf8internal12ExtensionSet18GetRefRepeatedBoolEii",
            "__ZN4ggml3cpu13tensor_traitsD1Ev",
            "_ggml_backend_tensor_set",
            "_ggml_cpu_has_fp16_va",
            "__ZN6google8protobuf11MessageLite30ParsePartialFromFileDescriptorEi",
            "__ZNK13sentencepiece4util6Status4codeEv",
            "__ZN4absl12lts_2024072219ToInt64MillisecondsENS0_8DurationE",
            "__ZN13sentencepiece12SelfTestData8CopyFromERKS0_",
            "__ZNK13sentencepiece7unigram7Lattice11begin_nodesEi",
            "__ZN13sentencepiece10ModelProto12InternalSwapEPS0_",
            "_quantize_row_iq4_xs",
            "__ZN4absl12lts_202407229ParseFlagERKNSt3__112basic_stringIcNS1_11char_traitsIcEENS1_9allocatorIcEEEEPNS0_8DurationEPS7_",
            "__ZNK4absl12lts_2024072213time_internal4cctz12TimeZoneLibC14PrevTransitionERKNSt3__16chrono10time_pointINS5_12system_clockENS5_8durationIxNS4_5ratioILl1ELl1EEEEEEEPNS2_9time_zone16civil_transitionE",
            "__ZN13sentencepiece14NormalizerSpecC1EPN6google8protobuf5ArenaEb",
            "__ZN6google8protobuf8internal14WireFormatLite24WriteMessageMaybeToArrayEiRKNS0_11MessageLiteEPNS0_2io17CodedOutputStreamE",
            "__ZN4absl12lts_20240722lsERNSt3__113basic_ostreamIcNS1_11char_traitsIcEEEENS0_11string_viewE",
            "__ZN13sentencepiece29TrainerSpec_ModelType_IsValidEi",
            "__ZN4absl12lts_2024072224synchronization_internal12PerThreadSem4TickEPNS0_13base_internal14ThreadIdentityE",
            "__ZN6google8protobuf16CEscapeAndAppendENS0_20stringpiece_internal11StringPieceEPNSt3__112basic_stringIcNS3_11char_traitsIcEENS3_9allocatorIcEEEE",
            "__ZNK13sentencepiece31SentencePieceText_SentencePiece11GetTypeNameEv",
            "__ZNK6google8protobuf20stringpiece_internal11StringPiece16find_last_not_ofEcm",
            "_ggml_set_i32",
            "__ZN4absl12lts_2024072216raw_log_internal25AsyncSignalSafeWriteErrorEPKcm",
            "__ZN6google8protobuf8internal12ParseContext12ParseMessageEPNS0_11MessageLiteEPKc",
            "__ZNK13sentencepiece31SentencePieceText_SentencePiece13SetCachedSizeEi",
            "__ZN4absl12lts_2024072212ToUnixMillisENS0_4TimeE",
            "__ZNK4absl12lts_2024072214flags_internal8FlagImpl10PtrStorageEv",
            "__Z16nmt_token_to_strP11nmt_contexti",
            "__ZN6google8protobuf2io16FileOutputStreamD0Ev",
            "__ZN4ggml3cpu13tensor_traitsD0Ev",
            "_ggml_backend_dev_supports_buft",
            "__ZN6google8protobuf2io19EpsCopyOutputStream34GetDirectBufferForNBytesAndAdvanceEiPPh",
            "_ggml_compute_forward_out_prod",
            "__ZNK13sentencepiece31ImmutableNBestSentencePieceText6nbestsEv",
            "_quantize_row_q5_K",
            "_ggml_compute_forward_cross_entropy_loss",
            "__ZN6google8protobuf5Arena26AllocateAlignedWithCleanupEmPKSt9type_info",
            "__ZN6google8protobuf2io26CopyingOutputStreamAdaptorD2Ev",
            "__ZN6google8protobuf10SimpleItoaEi",
            "_ggml_vec_dot_iq1_s_q8_K_generic",
            "_ggml_add_rel_pos",
            "_ggml_timestep_embedding",
            "__ZN6google8protobuf8internal15ThreadSafeArena10AddCleanupEPvPFvS3_E",
            "__ZNK13sentencepiece22SentencePieceProcessor12SampleEncodeEN4absl12lts_2024072211string_viewEifPNS_17SentencePieceTextE",
            "__ZNK13sentencepiece49ImmutableSentencePieceText_ImmutableSentencePiece5pieceEv",
            "__Z12nmt_tokenizeP11nmt_contextPKcPii",
            "__ZN13sentencepiece24ModelProto_SentencePiece5ClearEv",
            "__ZN6google8protobuf2io15FileInputStream22CopyingFileInputStreamD2Ev",
            "_ggml_backend_buffer_get_base",
            "__ZNK13sentencepiece7unigram5Model6EncodeEN4absl12lts_2024072211string_viewE",
            "__ZNK4absl12lts_2024072211string_view4findES1_m",
            "__ZN6google8protobuf2io17CodedOutputStreamD1Ev",
            "__ZN4absl12lts_2024072210from_charsEPKcS2_RdNS0_12chars_formatE",
            "__ZN13sentencepiece26ImmutableSentencePieceTextC2ERKNS_17SentencePieceTextE",
            "__ZN6google8protobuf8internal23SerializeMessageNoTableEPKNS0_11MessageLiteEPNS1_11ArrayOutputE",
            "_ggml_cpu_has_sve",
            "__ZN35qvac_lib_inference_addon_mlc_marian4stopEP8js_env_sP18js_callback_info_s",
            "__ZN6google8protobuf2io19OstreamOutputStream26CopyingOstreamOutputStreamC1EPNSt3__113basic_ostreamIcNS4_11char_traitsIcEEEE",
            "__ZN6google8protobuf8internal14WireFormatLite10UInt64SizeERKNS0_13RepeatedFieldIyEE",
            "__ZN13sentencepiece9character5ModelD0Ev",
            "__ZN4absl12lts_202407229ToTimevalENS0_8DurationE",
            "_ggml_graph_plan",
            "__ZN4absl12lts_2024072213base_internal8SpinLock10SlowUnlockEj",
            "__ZN6google8protobuf7uint12810DivModImplES1_S1_PS1_S2_",
            "__ZN4absl12lts_2024072213base_internal23ThrowStdInvalidArgumentEPKc",
            "_ggml_backend_buffer_name",
            "__ZN13sentencepiece11TrainerSpecC1EPN6google8protobuf5ArenaEb",
            "__ZN6google8protobuf11LogSilencerD2Ev",
            "__ZN6google8protobuf2io25CopyingInputStreamAdaptorD1Ev",
            "__ZN4absl12lts_2024072220DefaultStackUnwinderEPPvPiiiPKvS3_",
            "__ZN6google8protobuf2io19OstreamOutputStream6BackUpEi",
            "_ggml_vec_dot_iq4_nl_q8_0_generic",
            "__ZN4absl12lts_2024072211ToUnixNanosENS0_4TimeE",
            "__ZN4absl12lts_2024072215AsciiStrToUpperEPNSt3__112basic_stringIcNS1_11char_traitsIcEENS1_9allocatorIcEEEE",
            "_ggml_hardsigmoid",
            "_ggml_row_size",
            "__ZN4absl12lts_202407225Mutex12ReaderUnlockEv",
            "__ZN6google8protobuf9DoNothingEv",
            "_ggml_cpu_has_avx512",
            "__ZN6google8protobuf8internal13OnShutdownRunEPFvPKvES3_",
            "__ZN6google8protobuf2io18IstreamInputStream25CopyingIstreamInputStream4ReadEPvi",
            "__ZN6google8protobuf8internal20WriteLengthDelimitedEjNS0_20stringpiece_internal11StringPieceEPNSt3__112basic_stringIcNS4_11char_traitsIcEENS4_9allocatorIcEEEE",
            "_ggml_out_prod",
            "_ggml_threadpool_params_init",
            "__ZN4absl12lts_2024072211ToUniversalENS0_4TimeE",
            "__ZN6google8protobuf4util15status_internal20InvalidArgumentErrorENS0_20stringpiece_internal11StringPieceE",
            "__ZN13sentencepiece14NormalizerSpec21CheckTypeAndMergeFromERKN6google8protobuf11MessageLiteE",
            "__ZNK13sentencepiece10ModelProto18_InternalSerializeEPhPN6google8protobuf2io19EpsCopyOutputStreamE",
            "_ggml_backend_graph_copy_free",
            "_ggml_backend_event_wait",
            "__ZN13sentencepiece12SelfTestDataD2Ev",
            "__ZN6google8protobuf2io17ArrayOutputStream4NextEPPvPi",
            "__ZN4absl12lts_2024072213time_internal4cctz9time_zone4ImplC2ERKNSt3__112basic_stringIcNS5_11char_traitsIcEENS5_9allocatorIcEEEE",
            "__ZNK4absl12lts_2024072213time_internal4cctz12TimeZoneLibC11DescriptionEv",
            "_ggml_backend_reg_get_proc_address",
            "_ggml_cpu_has_dotprod",
            "_ggml_compute_forward_rms_norm",
            "__ZNK13sentencepiece10normalizer10Normalizer9NormalizeEN4absl12lts_2024072211string_viewEPNSt3__112basic_stringIcNS5_11char_traitsIcEENS5_9allocatorIcEEEEPNS5_6vectorImNS9_ImEEEE",
            "__ZN13sentencepiece10ModelProto8CopyFromERKS0_",
            "_ggml_mul_inplace",
            "_ggml_unravel_index",
            "_ggml_backend_dev_description",
            "_ggml_conv_1d_dw",
            "__ZNK6google8protobuf2io26CopyingOutputStreamAdaptor9ByteCountEv",
            "_ggml_l2_norm",
            "_ggml_backend_dev_get_props",
            "__ZN6google8protobuf2io18StringOutputStreamC1EPNSt3__112basic_stringIcNS3_11char_traitsIcEENS3_9allocatorIcEEEE",
            "__ZN4absl12lts_2024072213base_internal18ThrowStdRangeErrorEPKc",
            "__ZN13sentencepiece11TrainerSpec5ClearEv",
            "__ZN6google8protobuf4util15status_internal10IsInternalERKNS2_6StatusE",
            "_ggml_compute_forward_add1",
            "__ZNK6google8protobuf8internal12ExtensionSet20GetRefRepeatedDoubleEii",
            "_ggml_compute_forward_arange",
            "__ZNK6google8protobuf20stringpiece_internal11StringPiece5rfindES2_m",
            "__ZN6google8protobuf4util15status_internal13NotFoundErrorENS0_20stringpiece_internal11StringPieceE",
            "__ZN6google8protobuf8internal14WireFormatLite9SkipFieldEPNS0_2io16CodedInputStreamEjPNS3_17CodedOutputStreamE",
            "_ggml_compute_forward_elu",
            "__ZN6google8protobuf2io25CopyingInputStreamAdaptorD0Ev",
            "_ggml_compute_forward_sgn",
            "__ZN6google8protobuf2io16CodedInputStream18ReadStringFallbackEPNSt3__112basic_stringIcNS3_11char_traitsIcEENS3_9allocatorIcEEEEi",
            "_quantize_row_q5_0_ref",
            "__ZN6google8protobuf2io24ConcatenatingInputStream6BackUpEi",
            "__ZNK13sentencepiece22NBestSentencePieceText13SetCachedSizeEi",
            "_ggml_opt_step_adamw",
            "__ZN4absl12lts_2024072213hash_internal19CityHash64WithSeedsEPKcmyy",
            "__ZN35qvac_lib_inference_addon_mlc_marian16TranslationModelD2Ev",
            "__ZNK4absl12lts_2024072218container_internal33CommonFieldsGenerationInfoEnabled41should_rehash_for_bug_detection_on_insertEPKNS1_6ctrl_tEm",
            "__ZN4absl12lts_2024072213ParseDurationENS0_11string_viewEPNS0_8DurationE",
            "__ZNK6google8protobuf20stringpiece_internal11StringPiece4copyEPcmm",
            "__ZN13sentencepiece22SentencePieceProcessor14LoadVocabularyEN4absl12lts_2024072211string_viewEi",
            "__ZN4absl12lts_2024072213base_internal13LowLevelAlloc5ArenaC2Ej",
            "__ZNK6google8protobuf8internal15ThreadSafeArena9SpaceUsedEv",
            "_ggml_gallocr_reserve",
            "_quantize_q2_K",
            "_ggml_add1",
            "__ZN13sentencepiece10ModelProtoC2EPN6google8protobuf5ArenaEb",
            "__ZN4absl12lts_2024072214flags_internal13AbslParseFlagENS0_11string_viewEPNSt3__112basic_stringIcNS3_11char_traitsIcEENS3_9allocatorIcEEEESA_",
            "__ZNK13sentencepiece19SelfTestData_Sample11GetTypeNameEv",
            "__ZN6google8protobuf2io19OstreamOutputStreamD0Ev",
            "_ggml_get_rows"
          ],
          "weak": [
            "__ZNK6google8protobuf13RepeatedFieldIbE8GetArenaEv",
            "__ZN6google8protobuf13RepeatedFieldIjE4rendEv",
            "__ZN6google8protobuf13RepeatedFieldIdE4SwapEPS2_",
            "__ZNSt3__116__variant_detail12__visitation6__base12__dispatcherIJLm1EEE10__dispatchB8ue170006IONS1_9__variant15__value_visitorIZN28qvac_lib_inference_addon_cpp5AddonIN35qvac_lib_inference_addon_mlc_marian16TranslationModelEE16jsOutputCallbackEP10uv_async_sEUlOT_E_EEJRNS0_6__baseILNS0_6_TraitE0EJdxEEEEEEDcSF_DpT0_",
            "__ZN6google8protobuf8internal16RepeatedIteratorIbEC2EPb",
            "__ZN6google8protobuf13RepeatedFieldIiEC2EPNS0_5ArenaE",
            "__ZNK6google8protobuf13RepeatedFieldIiE6cbeginEv",
            "__ZN6google8protobuf13RepeatedFieldIfE8CopyFromERKS2_",
            "__ZN6google8protobuf8internal16RepeatedIteratorIiEC2Ev",
            "__ZN6google8protobuf13RepeatedFieldIdEaSEOS2_",
            "__ZN6google8protobuf13RepeatedFieldIbE3Rep8elementsEv",
            "__ZN6google8protobuf13RepeatedFieldIbE15UnsafeArenaSwapEPS2_",
            "__ZN4absl12lts_2024072216strings_internal11BigUnsignedILi4EEC2Ey",
            "__ZN6google8protobuf13RepeatedFieldIfE18AddAlreadyReservedEv",
            "__ZN6google8protobuf13RepeatedFieldIxE18AddAlreadyReservedERKx",
            "__ZN6google8protobuf13RepeatedFieldIfE3Rep8elementsEv",
            "__ZN4absl12lts_2024072219str_format_internal13FormatArgImpl8DispatchItEEbNS2_4DataENS1_24FormatConversionSpecImplEPv",
            "__ZN6google8protobuf13RepeatedFieldIjE3AddERKj",
            "__ZN6google8protobuf13RepeatedFieldIjE3Rep8elementsEv",
            "__ZNK6google8protobuf13RepeatedFieldIxE8GetArenaEv",
            "__ZN6google8protobuf8internal21arena_destruct_objectINS0_13RepeatedFieldIdEEEEvPv",
            "__ZN6google8protobuf16RepeatedPtrFieldINSt3__112basic_stringIcNS2_11char_traitsIcEENS2_9allocatorIcEEEEE10RemoveLastEv",
            "__ZNK6google8protobuf13RepeatedFieldIfE3repEv",
            "__ZN6google8protobuf13RepeatedFieldIfE18InternalDeallocateEPNS2_3RepEib",
            "__ZN6google8protobuf13RepeatedFieldIjE5ClearEv",
            "__ZN6google8protobuf16RepeatedPtrFieldINSt3__112basic_stringIcNS2_11char_traitsIcEENS2_9allocatorIcEEEEEC1EPNS0_5ArenaE",
            "__ZN6google8protobuf13RepeatedFieldIjE7ReserveEi",
            "__ZNK4absl12lts_2024072216strings_internal11BigUnsignedILi4EE4sizeEv",
            "__ZN6google8protobuf13RepeatedFieldIbE18AddAlreadyReservedERKb",
            "__ZN4absl12lts_2024072216strings_internal11BigUnsignedILi4EEC1Ey",
            "__ZN4absl12lts_2024072219str_format_internal13FormatArgImpl8DispatchINS0_7uint128EEEbNS2_4DataENS1_24FormatConversionSpecImplEPv",
            "__ZNK6google8protobuf13RepeatedFieldIbE4cendEv",
            "__ZN6google8protobuf8internal16RepeatedIteratorIjEmmEi",
            "__ZN6google8protobuf13RepeatedFieldIfE5eraseENS0_8internal16RepeatedIteratorIKfEE",
            "__ZNK6google8protobuf13RepeatedFieldIbE8elementsEv",
            "__ZN4absl12lts_2024072216strings_internal10ParseFloatILi10EEENS1_11ParsedFloatEPKcS5_NS0_12chars_formatE",
            "__ZN6google8protobuf13RepeatedFieldIjEC1ERKS2_",
            "__ZNK6google8protobuf8internal16RepeatedIteratorIyEplEl",
            "__ZN6google8protobuf8internal16RepeatedIteratorIdEppEi",
            "__ZNK6google8protobuf8internal16RepeatedIteratorIjEplEl",
            "__ZN4absl12lts_2024072219str_format_internal13ConvertIntArgItEEbT_NS1_24FormatConversionSpecImplEPNS1_14FormatSinkImplE",
            "__ZN6google8protobuf8internal16RepeatedIteratorIjEC2EPj",
            "__ZNK6google8protobuf16RepeatedPtrFieldINSt3__112basic_stringIcNS2_11char_traitsIcEENS2_9allocatorIcEEEEE5emptyEv",
            "__ZN6google8protobuf16RepeatedPtrFieldINSt3__112basic_stringIcNS2_11char_traitsIcEENS2_9allocatorIcEEEEE4SwapEPS9_",
            "__ZNK6google8protobuf16RepeatedPtrFieldINSt3__112basic_stringIcNS2_11char_traitsIcEENS2_9allocatorIcEEEEE14GetOwningArenaEv",
            "__ZNK4absl12lts_2024072216strings_internal11BigUnsignedILi84EE5wordsEv",
            "__ZN4absl12lts_2024072213base_internal10AtomicHookIPFvxEE13DummyFunctionEx",
            "__ZNK6google8protobuf16RepeatedPtrFieldINSt3__112basic_stringIcNS2_11char_traitsIcEENS2_9allocatorIcEEEEE4sizeEv",
            "__ZN6google8protobuf13RepeatedFieldIyEC1ERKS2_",
            "__ZN6google8protobuf13RepeatedFieldIyE9MergeFromERKS2_",
            "__ZN6google8protobuf13RepeatedFieldIyEC2EPNS0_5ArenaE",
            "__ZN6google8protobuf13RepeatedFieldIbE5beginEv",
            "__ZNK6google8protobuf13RepeatedFieldIdE2atEi",
            "__ZN6google8protobuf13RepeatedFieldIiE3SetEiRKi",
            "__ZN4absl12lts_2024072216strings_internal11BigUnsignedILi4EE10MultiplyByEy",
            "__ZN6google8protobuf13RepeatedFieldIiE3AddEv",
            "__ZNK6google8protobuf16RepeatedPtrFieldINSt3__112basic_stringIcNS2_11char_traitsIcEENS2_9allocatorIcEEEEE6rbeginEv",
            "__ZN6google8protobuf8internal16RepeatedIteratorIdEC1EPd",
            "__ZN4absl12lts_2024072219str_format_internal13FormatArgImpl8DispatchIjEEbNS2_4DataENS1_24FormatConversionSpecImplEPv",
            "__ZN6google8protobuf8internal16RepeatedIteratorIiEC1EPi",
            "__ZN6google8protobuf13RepeatedFieldIiEC2Ev",
            "__ZN4absl12lts_2024072216strings_internal11BigUnsignedILi84EE21MultiplyByTenToTheNthEi",
            "__ZNSt3__116__variant_detail12__visitation6__base12__dispatcherIJLm4ELm4EEE10__dispatchB8ue170006IOZNS0_6__ctorINS0_8__traitsIJNS_9monostateENS_12basic_stringIcNS_11char_traitsIcEENS_9allocatorIcEEEENS_6vectorINS_4pairISE_NS_7variantIJdxEEEEENSC_ISJ_EEEEN28qvac_lib_inference_addon_cpp6OutputISE_E5ErrorENSO_6LogMsgEEEEE19__generic_constructB8ue170006INS0_18__move_constructorISR_LNS0_6_TraitE1EEEEEvRSS_OT_EUlRSY_OT0_E_JRNS0_6__baseILSV_1EJS8_SE_SL_SP_SQ_EEEOS16_EEEDcSY_DpT0_",
            "__ZN6google8protobuf13RepeatedFieldIjE8CopyFromERKS2_",
            "__ZN6google8protobuf13RepeatedFieldIdE3endEv",
            "_AbslInternalMutexYield_lts_20240722",
            "__ZN6google8protobuf13RepeatedFieldIxE9MoveArrayEPxS3_i",
            "__ZN6google8protobuf8internal16RepeatedIteratorIdEpLEl",
            "__ZN6google8protobuf13RepeatedFieldIjE3endEv",
            "__ZN6google8protobuf13RepeatedFieldIjE12InternalSwapEPS2_",
            "__ZN6google8protobuf8internal16RepeatedIteratorIxEppEv",
            "__ZN6google8protobuf13RepeatedFieldIiE9CopyArrayEPiPKii",
            "__ZN6google8protobuf8internal16RepeatedIteratorIbEC1EPb",
            "__ZN4absl12lts_2024072216strings_internal11BigUnsignedILi4EE22MultiplyByFiveToTheNthEi",
            "__ZN6google8protobuf13RepeatedFieldIdE5eraseENS0_8internal16RepeatedIteratorIKdEES6_",
            "__ZN6google8protobuf8internal16RepeatedIteratorIfEmIEl",
            "__ZNK6google8protobuf13RepeatedFieldIfE5emptyEv",
            "__ZN6google8protobuf8internal16RepeatedIteratorIdEC2EPd",
            "__ZN4absl12lts_2024072219str_format_internal13FormatArgImpl8DispatchIhEEbNS2_4DataENS1_24FormatConversionSpecImplEPv",
            "__ZN4absl12lts_2024072219str_format_internal13FormatArgImpl8DispatchIcEEbNS2_4DataENS1_24FormatConversionSpecImplEPv",
            "__ZN6google8protobuf8internal21arena_destruct_objectINS0_16RepeatedPtrFieldINS0_11MessageLiteEEEEEvPv",
            "__ZNK6google8protobuf8internal16RepeatedIteratorIdEplEl",
            "__ZN4absl12lts_2024072213base_internal10AtomicHookIPFvPKvxEE13DummyFunctionES4_x",
            "__ZN6google8protobuf13RepeatedFieldIiE4SwapEPS2_",
            "__ZN6google8protobuf13RepeatedFieldIdE5ClearEv",
            "__ZN4absl12lts_2024072216strings_internal11BigUnsignedILi84EEC2ENS0_11string_viewE",
            "__ZN6google8protobuf13RepeatedFieldIbE5eraseENS0_8internal16RepeatedIteratorIKbEE",
            "__ZNK4absl12lts_2024072216strings_internal11BigUnsignedILi4EE5wordsEv",
            "__ZN6google8protobuf16RepeatedPtrFieldINSt3__112basic_stringIcNS2_11char_traitsIcEENS2_9allocatorIcEEEEE5eraseENS0_8internal19RepeatedPtrIteratorIKS8_EE",
            "__ZN6google8protobuf8internal16RepeatedIteratorIfEpLEl",
            "__ZN6google8protobuf13RepeatedFieldIdE3SetEiRKd",
            "__ZN4absl12lts_2024072219str_format_internal13FormatArgImpl8DispatchINS1_7VoidPtrEEEbNS2_4DataENS1_24FormatConversionSpecImplEPv",
            "__ZN6google8protobuf13RepeatedFieldIjE15UnsafeArenaSwapEPS2_",
            "__ZN6google8protobuf13RepeatedFieldIxE4SwapEPS2_",
            "__ZN6google8protobuf8internal19arena_delete_objectINS0_11MessageLiteEEEvPv",
            "__ZN4absl12lts_2024072219str_format_internal13FormatArgImpl8DispatchIdEEbNS2_4DataENS1_24FormatConversionSpecImplEPv",
            "__ZNK6google8protobuf13RepeatedFieldIiE6rbeginEv",
            "__ZN6google8protobuf13RepeatedFieldIyE9CopyArrayEPyPKyi",
            "__ZN6google8protobuf13RepeatedFieldIdE12InternalSwapEPS2_",
            "__ZN6google8protobuf13RepeatedFieldIfE12mutable_dataEv",
            "__ZNK6google8protobuf13RepeatedFieldIdE6cbeginEv",
            "__ZNK6google8protobuf8internal16RepeatedIteratorIxEdeEv",
            "__ZZN28qvac_lib_inference_addon_cpp5AddonIN35qvac_lib_inference_addon_mlc_marian16TranslationModelEED1EvENUlP11uv_handle_sE_8__invokeES5_",
            "__ZN6google8protobuf13RepeatedFieldIbEC1EOS2_",
            "__ZN6google8protobuf13RepeatedFieldIyE18AddAlreadyReservedEv",
            "__ZN4absl12lts_2024072216strings_internal11BigUnsignedILi84EE12MultiplyStepEiPKjii",
            "__ZN6google8protobuf13RepeatedFieldIyE3Rep8elementsEv",
            "__ZN6google8protobuf13RepeatedFieldIyED1Ev",
            "__ZN6google8protobuf8internal16RepeatedIteratorIjEppEv",
            "__ZN6google8protobuf13RepeatedFieldIdE6ResizeEiRKd",
            "__ZN4absl12lts_2024072219str_format_internal13ConvertIntArgIxEEbT_NS1_24FormatConversionSpecImplEPNS1_14FormatSinkImplE",
            "__ZN4absl12lts_2024072216strings_internal11BigUnsignedILi84EE8Digits10Ev",
            "__ZN6google8protobuf8internal16RepeatedIteratorIfEC2EPf",
            "__ZN6google8protobuf13RepeatedFieldIxE3endEv",
            "__ZN6google8protobuf8internal21arena_destruct_objectINS0_13RepeatedFieldIfEEEEvPv",
            "__ZNK6google8protobuf8internal16RepeatedIteratorIyEmiEl",
            "__ZN6google8protobuf13RepeatedFieldIxE6rbeginEv",
            "__ZN6google8protobuf8internal16RepeatedIteratorIyEppEi",
            "__ZNK6google8protobuf13RepeatedFieldIfE22SpaceUsedExcludingSelfEv",
            "__ZN6google8protobuf8internal16RepeatedIteratorIbEppEi",
            "__ZNK6google8protobuf13RepeatedFieldIfE8elementsEv",
            "__ZN6google8protobuf13RepeatedFieldIbEC2ERKS2_",
            "__ZN6google8protobuf16RepeatedPtrFieldINSt3__112basic_stringIcNS2_11char_traitsIcEENS2_9allocatorIcEEEEE2atEi",
            "__ZNK6google8protobuf13RepeatedFieldIfE4dataEv",
            "__ZN6google8protobuf13RepeatedFieldIfE12InternalSwapEPS2_",
            "__ZN6google8protobuf13RepeatedFieldIbE3AddERKb",
            "__ZN6google8protobuf13RepeatedFieldIbEC1Ev",
            "__ZN6google8protobuf8internal21arena_destruct_objectINSt3__112basic_stringIcNS3_11char_traitsIcEENS3_9allocatorIcEEEEEEvPv",
            "__ZN6google8protobuf13RepeatedFieldIxEC1EOS2_",
            "__ZN6google8protobuf13RepeatedFieldIjE4SwapEPS2_",
            "__ZNK6google8protobuf13RepeatedFieldIbE4sizeEv",
            "__ZN6google8protobuf8internal16RepeatedIteratorIbEmmEv",
            "__ZN6google8protobuf8internal16RepeatedIteratorIfEmmEv",
            "__ZN6google8protobuf13RepeatedFieldIbE2atEi",
            "__ZN6google8protobuf13RepeatedFieldIyEaSERKS2_",
            "__ZN6google8protobuf13RepeatedFieldIiE5eraseENS0_8internal16RepeatedIteratorIKiEES6_",
            "__ZN6google8protobuf16RepeatedPtrFieldINSt3__112basic_stringIcNS2_11char_traitsIcEENS2_9allocatorIcEEEEE5eraseENS0_8internal19RepeatedPtrIteratorIKS8_EESD_",
            "_AbslInternalSpinLockWake_lts_20240722",
            "__ZNK6google8protobuf13RepeatedFieldIdE6rbeginEv",
            "__ZN6google8protobuf13RepeatedFieldIdE18InternalDeallocateEPNS2_3RepEib",
            "__ZNK6google8protobuf16RepeatedPtrFieldINSt3__112basic_stringIcNS2_11char_traitsIcEENS2_9allocatorIcEEEEE12ClearedCountEv",
            "__ZN6google8protobuf13RepeatedFieldIxE3Rep8elementsEv",
            "__ZN4absl12lts_2024072219str_format_internal13FormatArgImpl8DispatchIPKwEEbNS2_4DataENS1_24FormatConversionSpecImplEPv",
            "__ZN6google8protobuf16RepeatedPtrFieldINSt3__112basic_stringIcNS2_11char_traitsIcEENS2_9allocatorIcEEEEED1Ev",
            "__ZNK6google8protobuf13RepeatedFieldIiE3endEv",
            "__ZN6google8protobuf13RepeatedFieldIiE4rendEv",
            "__ZN6google8protobuf13RepeatedFieldIfEC1EPNS0_5ArenaE",
            "__ZN4absl12lts_2024072219str_format_internal13FormatArgImpl8DispatchINS0_11string_viewEEEbNS2_4DataENS1_24FormatConversionSpecImplEPv",
            "__ZN6google8protobuf13RepeatedFieldIiEC2ERKS2_",
            "__ZN4absl12lts_202407225Mutex4DtorEv",
            "__ZN6google8protobuf13RepeatedFieldIfEC1ERKS2_",
            "__ZN4absl12lts_2024072219str_format_internal13FormatArgImpl8DispatchINS0_6int128EEEbNS2_4DataENS1_24FormatConversionSpecImplEPv",
            "__ZNK6google8protobuf13RepeatedFieldIyE6cbeginEv",
            "__ZN4absl12lts_2024072216strings_internal11BigUnsignedILi4EE10MultiplyByEiPKj",
            "__ZNK6google8protobuf13RepeatedFieldIdE15unsafe_elementsEv",
            "__ZN6google8protobuf13RepeatedFieldIxEC2EPNS0_5ArenaE",
            "__ZNK6google8protobuf8internal16RepeatedIteratorIbEdeEv",
            "__ZN6google8protobuf13RepeatedFieldIxE15ExtractSubrangeEiiPx",
            "__ZN6google8protobuf13RepeatedFieldIyEC2ERKS2_",
            "__ZN6google8protobuf13RepeatedFieldIxEC1ERKS2_",
            "__ZN6google8protobuf8internal13MergeFromImplILb1EEEbNS1_11BoundedZCISEPNS0_11MessageLiteENS4_10ParseFlagsE",
            "__ZN6google8protobuf16RepeatedPtrFieldINSt3__112basic_stringIcNS2_11char_traitsIcEENS2_9allocatorIcEEEEEaSEOS9_",
            "__ZNK6google8protobuf8internal16RepeatedIteratorIfEdeEv",
            "__ZN6google8protobuf13RepeatedFieldIfEC2EOS2_",
            "__ZN6google8protobuf13RepeatedFieldIxEC2EOS2_",
            "__ZN28qvac_lib_inference_addon_cpp5AddonIN35qvac_lib_inference_addon_mlc_marian16TranslationModelEE16jsOutputCallbackEP10uv_async_s",
            "__ZNK6google8protobuf16RepeatedPtrFieldINSt3__112basic_stringIcNS2_11char_traitsIcEENS2_9allocatorIcEEEEEixEi",
            "__ZNK6google8protobuf16RepeatedPtrFieldINSt3__112basic_stringIcNS2_11char_traitsIcEENS2_9allocatorIcEEEEE3GetEi",
            "__ZN6google8protobuf13RepeatedFieldIbEaSEOS2_",
            "__ZN4absl12lts_2024072218container_internal12raw_hash_setINS1_17FlatHashMapPolicyINS0_11string_viewENSt3__14pairIS4_S4_EEEENS1_10StringHashENS1_8StringEqENS5_9allocatorINS6_IKS4_S7_EEEEE16transfer_slot_fnEPvSG_SG_",
            "__ZNK6google8protobuf13RepeatedFieldIiE26SpaceUsedExcludingSelfLongEv",
            "__ZNK6google8protobuf13RepeatedFieldIbE4dataEv",
            "__ZN4absl12lts_2024072219str_format_internal13ConvertIntArgIyEEbT_NS1_24FormatConversionSpecImplEPNS1_14FormatSinkImplE",
            "__ZN6google8protobuf13RepeatedFieldIdE12mutable_dataEv",
            "__ZNK6google8protobuf8internal16RepeatedIteratorIxEptEv",
            "__ZNK6google8protobuf8internal16RepeatedIteratorIiEplEl",
            "__ZN6google8protobuf13RepeatedFieldIjE3SetEiRKj",
            "__ZN6google8protobuf13RepeatedFieldIyE10RemoveLastEv",
            "__ZN4absl12lts_2024072218container_internal12raw_hash_setINS1_17FlatHashMapPolicyINS0_11string_viewENSt3__14pairIS4_S4_EEEENS1_10StringHashENS1_8StringEqENS5_9allocatorINS6_IKS4_S7_EEEEE11resize_implERNS1_12CommonFieldsEmNS1_20HashtablezInfoHandleE",
            "__ZN6google8protobuf13RepeatedFieldIyE5eraseENS0_8internal16RepeatedIteratorIKyEE",
            "__ZNK6google8protobuf16RepeatedPtrFieldINSt3__112basic_stringIcNS2_11char_traitsIcEENS2_9allocatorIcEEEEE22SpaceUsedExcludingSelfEv",
            "__ZN6google8protobuf8internal16RepeatedIteratorIbEC1Ev",
            "__ZN4absl12lts_2024072216strings_internal11BigUnsignedILi4EEC2Ev",
            "__ZN6google8protobuf13RepeatedFieldIfE12SwapElementsEii",
            "__ZN4absl12lts_2024072218container_internal12raw_hash_setINS1_17FlatHashMapPolicyINS0_11string_viewEiEENS1_10StringHashENS1_8StringEqENSt3__19allocatorINS8_4pairIKS4_iEEEEE11resize_implERNS1_12CommonFieldsEmNS1_20HashtablezInfoHandleE",
            "__ZN6google8protobuf13RepeatedFieldIfE8TruncateEi",
            "__ZN6google8protobuf8internal16RepeatedIteratorIyEmmEi",
            "__ZN6google8protobuf13RepeatedFieldIbE8CopyFromERKS2_",
            "__ZN6google8protobuf13RepeatedFieldIdE15UnsafeArenaSwapEPS2_",
            "__ZN4absl12lts_2024072219str_format_internal13FormatArgImpl8DispatchIaEEbNS2_4DataENS1_24FormatConversionSpecImplEPv",
            "__ZN6google8protobuf13RepeatedFieldIfEixEi",
            "__ZN4absl12lts_2024072219str_format_internal13ConvertIntArgIhEEbT_NS1_24FormatConversionSpecImplEPNS1_14FormatSinkImplE",
            "__ZNK6google8protobuf13RepeatedFieldIjE3repEv",
            "__ZN6google8protobuf16RepeatedPtrFieldINSt3__112basic_stringIcNS2_11char_traitsIcEENS2_9allocatorIcEEEEEC1Ev",
            "__ZNK6google8protobuf13RepeatedFieldIiE8CapacityEv",
            "__ZN4absl12lts_2024072216strings_internal11BigUnsignedILi4EE10MultiplyByEj",
            "__ZN6google8protobuf13RepeatedFieldIfE3endEv",
            "__ZN6google8protobuf8internal16RepeatedIteratorIbEppEv",
            "__ZN6google8protobuf8internal16RepeatedIteratorIjEC2Ev",
            "__ZN6google8protobuf8internal16RepeatedIteratorIyEC2Ev",
            "__ZN6google8protobuf13RepeatedFieldIfE5beginEv",
            "__ZNK6google8protobuf13RepeatedFieldIbE8CapacityEv",
            "__ZN6google8protobuf13RepeatedFieldIxE10RemoveLastEv",
            "__ZNK6google8protobuf8internal16RepeatedIteratorIjEmiEl",
            "__ZN6google8protobuf8internal16RepeatedIteratorIdEC1Ev",
            "__ZN6google8protobuf8internal13MergeFromImplILb1EEEbPNS0_2io19ZeroCopyInputStreamEPNS0_11MessageLiteENS6_10ParseFlagsE",
            "__ZN6google8protobuf13RepeatedFieldIjE18InternalDeallocateEPNS2_3RepEib",
            "__ZNK6google8protobuf13RepeatedFieldIjE8elementsEv",
            "__ZNK6google8protobuf13RepeatedFieldIxE6cbeginEv",
            "__ZN6google8protobuf13RepeatedFieldIdED1Ev",
            "__ZN6google8protobuf16RepeatedPtrFieldINSt3__112basic_stringIcNS2_11char_traitsIcEENS2_9allocatorIcEEEEE12InternalSwapEPS9_",
            "__ZN6google8protobuf13RepeatedFieldIbE4SwapEPS2_",
            "__ZN6google8protobuf13RepeatedFieldIiE6ResizeEiRKi",
            "__ZN6google8protobuf13RepeatedFieldIbEC2Ev",
            "__ZNK6google8protobuf13RepeatedFieldIiE14GetOwningArenaEv",
            "__ZNK6google8protobuf13RepeatedFieldIjE22SpaceUsedExcludingSelfEv",
            "__ZNK6google8protobuf16RepeatedPtrFieldINSt3__112basic_stringIcNS2_11char_traitsIcEENS2_9allocatorIcEEEEE11pointer_endEv",
            "__ZN6google8protobuf8internal16RepeatedIteratorIbEmmEi",
            "__ZNK6google8protobuf13RepeatedFieldIiE4rendEv",
            "__ZN6google8protobuf13RepeatedFieldIiE12SwapElementsEii",
            "__ZN4absl12lts_2024072216strings_internal11BigUnsignedILi84EE10ReadDigitsEPKcS5_i",
            "__ZNK6google8protobuf13RepeatedFieldIbE22SpaceUsedExcludingSelfEv",
            "__ZN4absl12lts_2024072219str_format_internal13FormatArgImpl8DispatchIsEEbNS2_4DataENS1_24FormatConversionSpecImplEPv",
            "__ZN6google8protobuf13RepeatedFieldIyE18InternalDeallocateEPNS2_3RepEib",
            "__ZNK6google8protobuf13RepeatedFieldIiE3repEv",
            "__ZN6google8protobuf13RepeatedFieldIbE7MutableEi",
            "__ZN6google8protobuf13RepeatedFieldIxE9MergeFromERKS2_",
            "__ZN6google8protobuf16RepeatedPtrFieldINSt3__112basic_stringIcNS2_11char_traitsIcEENS2_9allocatorIcEEEEE3endEv",
            "__ZN6google8protobuf13RepeatedFieldIbE18InternalDeallocateEPNS2_3RepEib",
            "__ZN6google8protobuf8internal21arena_destruct_objectINS1_19ImplicitWeakMessageEEEvPv",
            "__ZN6google8protobuf13RepeatedFieldIjED2Ev",
            "__ZN6google8protobuf13RepeatedFieldIjE5beginEv",
            "__ZNK6google8protobuf13RepeatedFieldIfE4cendEv",
            "__ZN6google8protobuf13RepeatedFieldIxE7ReserveEi",
            "__ZN6google8protobuf8internal16RepeatedIteratorIyEppEv",
            "__ZN4absl12lts_2024072219str_format_internal13ConvertIntArgIaEEbT_NS1_24FormatConversionSpecImplEPNS1_14FormatSinkImplE",
            "__ZN6google8protobuf13RepeatedFieldIiEaSEOS2_",
            "__ZNK6google8protobuf8internal16RepeatedIteratorIjEixEl",
            "__ZN4absl12lts_2024072219str_format_internal13ConvertIntArgIlEEbT_NS1_24FormatConversionSpecImplEPNS1_14FormatSinkImplE",
            "__ZN6google8protobuf13RepeatedFieldIfE4SwapEPS2_",
            "__ZN6google8protobuf8internal16RepeatedIteratorIfEC2Ev",
            "__ZN6google8protobuf13RepeatedFieldIxE18InternalDeallocateEPNS2_3RepEib",
            "__ZN6google8protobuf8internal13MergeFromImplILb0EEEbNS0_20stringpiece_internal11StringPieceEPNS0_11MessageLiteENS5_10ParseFlagsE",
            "__ZN6google8protobuf13RepeatedFieldIdE9MergeFromERKS2_",
            "__ZNK6google8protobuf8internal16RepeatedIteratorIfEixEl",
            "__ZNK6google8protobuf13RepeatedFieldIbE2atEi",
            "__ZN6google8protobuf13RepeatedFieldIfEC2EPNS0_5ArenaE",
            "__ZNK6google8protobuf13RepeatedFieldIiE22SpaceUsedExcludingSelfEv",
            "__ZN6google8protobuf8internal16RepeatedIteratorIbEmIEl",
            "__ZNK6google8protobuf13RepeatedFieldIiE5beginEv",
            "__ZNK6google8protobuf13RepeatedFieldIdE22SpaceUsedExcludingSelfEv",
            "__ZNK6google8protobuf13RepeatedFieldIiE5emptyEv",
            "__ZN6google8protobuf13RepeatedFieldIfE18AddAlreadyReservedERKf",
            "__ZNK6google8protobuf13RepeatedFieldIiE2atEi",
            "__ZNK6google8protobuf16RepeatedPtrFieldINSt3__112basic_stringIcNS2_11char_traitsIcEENS2_9allocatorIcEEEEE3endEv",
            "__ZN6google8protobuf13RepeatedFieldIdE18AddAlreadyReservedEv",
            "__ZN6google8protobuf13RepeatedFieldIyE7ReserveEi",
            "__ZN6google8protobuf13RepeatedFieldIbEaSERKS2_",
            "__ZN4absl12lts_2024072216strings_internal11BigUnsignedILi84EE10MultiplyByEj",
            "__ZN4absl12lts_2024072216strings_internal11BigUnsignedILi4EE17ReadFloatMantissaERKNS1_11ParsedFloatEi",
            "__ZN6google8protobuf8internal16RepeatedIteratorIfEppEv",
            "__ZNK6google8protobuf13RepeatedFieldIxE8elementsEv",
            "__ZN6google8protobuf13RepeatedFieldIxEC1EPNS0_5ArenaE",
            "__ZNK6google8protobuf13RepeatedFieldIdE26SpaceUsedExcludingSelfLongEv",
            "__ZNK6google8protobuf13RepeatedFieldIdE3GetEi",
            "__ZN6google8protobuf13RepeatedFieldIiE5eraseENS0_8internal16RepeatedIteratorIKiEE",
            "__ZN6google8protobuf13RepeatedFieldIiE5ClearEv",
            "__ZN6google8protobuf13RepeatedFieldIxED2Ev",
            "__ZN6google8protobuf13RepeatedFieldIiE18AddAlreadyReservedEv",
            "__ZN6google8protobuf13RepeatedFieldIxE4rendEv",
            "__ZN6google8protobuf13RepeatedFieldIfE4rendEv",
            "__ZN6google8protobuf13RepeatedFieldIjE9MoveArrayEPjS3_i",
            "__ZN6google8protobuf13RepeatedFieldIyE2atEi",
            "__ZN4absl12lts_2024072216strings_internal11BigUnsignedILi4EE10ReadDigitsEPKcS5_i",
            "__ZN6google8protobuf13RepeatedFieldIjE9CopyArrayEPjPKji",
            "__ZN6google8protobuf13RepeatedFieldIiE19AddNAlreadyReservedEi",
            "__ZZN6google8protobuf8internal16OnShutdownDeleteINS1_25RepeatedPrimitiveDefaultsEEEPT_S5_ENUlPKvE_8__invokeES7_",
            "__ZN6google8protobuf16RepeatedPtrFieldINSt3__112basic_stringIcNS2_11char_traitsIcEENS2_9allocatorIcEEEEE8CopyFromERKS9_",
            "__ZNK6google8protobuf13RepeatedFieldIfE8CapacityEv",
            "__ZNK6google8protobuf8internal16RepeatedIteratorIbEixEl",
            "__ZN4absl12lts_2024072219str_format_internal13FormatArgImpl8DispatchImEEbNS2_4DataENS1_24FormatConversionSpecImplEPv",
            "__ZN4absl12lts_2024072216strings_internal11BigUnsignedILi84EE9SetToZeroEv",
            "__ZNK6google8protobuf13RepeatedFieldIyE26SpaceUsedExcludingSelfLongEv",
            "__ZN6google8protobuf13RepeatedFieldIdEC2Ev",
            "__ZNK6google8protobuf13RepeatedFieldIxE4rendEv",
            "__ZN6google8protobuf8internal16RepeatedIteratorIxEC1EPx",
            "__ZN6google8protobuf13RepeatedFieldIxEC2ERKS2_",
            "__ZNK6google8protobuf13RepeatedFieldIjE4cendEv",
            "__ZN6google8protobuf8internal16RepeatedIteratorIjEpLEl",
            "__ZNK6google8protobuf13RepeatedFieldIbE15unsafe_elementsEv",
            "__ZN6google8protobuf13RepeatedFieldIxE5beginEv",
            "__ZN6google8protobuf13RepeatedFieldIdE5eraseENS0_8internal16RepeatedIteratorIKdEE",
            "__ZN4absl12lts_2024072216strings_internal11BigUnsignedILi4EEC2ENS0_11string_viewE",
            "__ZN6google8protobuf13RepeatedFieldIbE12InternalSwapEPS2_",
            "__ZN6google8protobuf16RepeatedPtrFieldINSt3__112basic_stringIcNS2_11char_traitsIcEENS2_9allocatorIcEEEEE7ReserveEi",
            "__ZN6google8protobuf13RepeatedFieldIxE12mutable_dataEv",
            "__ZN6google8protobuf13RepeatedFieldIiE3Rep8elementsEv",
            "__ZN6google8protobuf8internal16RepeatedIteratorIjEmmEv",
            "__ZNK6google8protobuf13RepeatedFieldIiE3GetEi",
            "__ZNK6google8protobuf13RepeatedFieldIyE8GetArenaEv",
            "__ZN6google8protobuf8internal16RepeatedIteratorIfEC1EPf",
            "__ZN6google8protobuf13RepeatedFieldIjE18AddAlreadyReservedERKj",
            "__ZN6google8protobuf13RepeatedFieldIiE15UnsafeArenaSwapEPS2_",
            "__ZN6google8protobuf13RepeatedFieldIjEixEi",
            "__ZNK6google8protobuf16RepeatedPtrFieldINSt3__112basic_stringIcNS2_11char_traitsIcEENS2_9allocatorIcEEEEE4rendEv",
            "__ZN6google8protobuf8internal16RepeatedIteratorIdEppEv",
            "__ZN4absl12lts_2024072219str_format_internal17FormatRawSinkImpl5FlushINS1_13BufferRawSinkEEEvPvNS0_11string_viewE",
            "__ZNK6google8protobuf8internal16RepeatedIteratorIyEdeEv",
            "__ZN6google8protobuf13RepeatedFieldIdEC1EOS2_",
            "__ZN4absl12lts_2024072219str_format_internal13FormatArgImpl8DispatchIxEEbNS2_4DataENS1_24FormatConversionSpecImplEPv",
            "__ZN6google8protobuf13RepeatedFieldIfE7ReserveEi",
            "__ZN6google8protobuf13RepeatedFieldIdE18AddAlreadyReservedERKd",
            "__ZNK6google8protobuf13RepeatedFieldIjE5emptyEv",
            "__ZNK6google8protobuf13RepeatedFieldIfE2atEi",
            "__ZN6google8protobuf13RepeatedFieldIjE2atEi",
            "__ZN6google8protobuf13RepeatedFieldIxE5ClearEv",
            "__ZNK6google8protobuf13RepeatedFieldIxE22SpaceUsedExcludingSelfEv",
            "__ZNK6google8protobuf13RepeatedFieldIjE4dataEv",
            "__ZN6google8protobuf8internal16RepeatedIteratorIyEC1EPy",
            "__ZN6google8protobuf13RepeatedFieldIiE8CopyFromERKS2_",
            "__ZN6google8protobuf13RepeatedFieldIyE5beginEv",
            "__ZN6google8protobuf16RepeatedPtrFieldINSt3__112basic_stringIcNS2_11char_traitsIcEENS2_9allocatorIcEEEEE23UnsafeArenaAddAllocatedEPS8_",
            "__ZN6google8protobuf13RepeatedFieldIxE19AddNAlreadyReservedEi",
            "__ZNK6google8protobuf13RepeatedFieldIdE4dataEv",
            "__ZN6google8protobuf8internal16RepeatedIteratorIxEpLEl",
            "__ZN6google8protobuf8internal16RepeatedIteratorIdEmmEi",
            "__ZN6google8protobuf8internal16RepeatedIteratorIxEmIEl",
            "__ZN6google8protobuf13RepeatedFieldIdE4rendEv",
            "__ZN6google8protobuf13RepeatedFieldIfE6ResizeEiRKf",
            "__ZN6google8protobuf13RepeatedFieldIiE15ExtractSubrangeEiiPi",
            "__ZN6google8protobuf13RepeatedFieldIdE8TruncateEi",
            "__ZN6google8protobuf13RepeatedFieldIyE8TruncateEi",
            "__ZNK6google8protobuf13RepeatedFieldIbE3GetEi",
            "__ZN6google8protobuf16RepeatedPtrFieldINSt3__112basic_stringIcNS2_11char_traitsIcEENS2_9allocatorIcEEEEEC1ERKS9_",
            "__ZNK6google8protobuf8internal16RepeatedIteratorIiEixEl",
            "__ZNK6google8protobuf13RepeatedFieldIiE4cendEv",
            "__ZN6google8protobuf13RepeatedFieldIxE12SwapElementsEii",
            "__ZNK6google8protobuf13RepeatedFieldIyE22SpaceUsedExcludingSelfEv",
            "__ZN6google8protobuf8internal16RepeatedIteratorIjEmIEl",
            "__ZN4absl12lts_2024072218container_internal19TransferRelocatableILm16EEEvPvS3_S3_",
            "__ZNK6google8protobuf13RepeatedFieldIfE15unsafe_elementsEv",
            "__ZNK6google8protobuf13RepeatedFieldIyE15unsafe_elementsEv",
            "__ZN6google8protobuf13RepeatedFieldIdE6rbeginEv",
            "__ZN6google8protobuf13RepeatedFieldIjEC1Ev",
            "__ZN4absl12lts_2024072218container_internal19TransferRelocatableILm24EEEvPvS3_S3_",
            "__ZN6google8protobuf13RepeatedFieldIbE3SetEiRKb",
            "__ZN4absl12lts_2024072216strings_internal10ParseFloatILi16EEENS1_11ParsedFloatEPKcS5_NS0_12chars_formatE",
            "__ZN6google8protobuf13RepeatedFieldIyE3AddEv",
            "__ZN6google8protobuf13RepeatedFieldIyE3endEv",
            "__ZN4absl12lts_2024072213base_internal10AtomicHookIPFvPKcPKvxEE13DummyFunctionES4_S6_x",
            "__ZNK6google8protobuf13RepeatedFieldIfE6rbeginEv",
            "__ZN4absl12lts_2024072218container_internal18DeallocateStandardILm8EEEvRNS1_12CommonFieldsERKNS1_15PolicyFunctionsE",
            "__ZN4absl12lts_2024072216strings_internal11BigUnsignedILi84EE10MultiplyByEiPKj",
            "__ZN6google8protobuf13RepeatedFieldIxE9CopyArrayEPxPKxi",
            "__ZN6google8protobuf13RepeatedFieldIxE3SetEiRKx",
            "__ZNK6google8protobuf13RepeatedFieldIfE3GetEi",
            "__ZN6google8protobuf13RepeatedFieldIjEC2EPNS0_5ArenaE",
            "__ZN6google8protobuf8internal16RepeatedIteratorIyEmIEl",
            "__ZN4absl12lts_2024072219str_format_internal13FormatArgImpl8DispatchIPKcEEbNS2_4DataENS1_24FormatConversionSpecImplEPv",
            "__ZN6google8protobuf16RepeatedPtrFieldINSt3__112basic_stringIcNS2_11char_traitsIcEENS2_9allocatorIcEEEEEC2ERKS9_",
            "__ZN6google8protobuf13RepeatedFieldIbE18AddAlreadyReservedEv",
            "__ZN6google8protobuf8internal16RepeatedIteratorIiEmIEl",
            "__ZNK6google8protobuf13RepeatedFieldIdE5emptyEv",
            "__ZN6google8protobuf16RepeatedPtrFieldINSt3__112basic_stringIcNS2_11char_traitsIcEENS2_9allocatorIcEEEEE23ExtractSubrangeInternalEiiPPS8_NS2_17integral_constantIbLb0EEE",
            "__ZN6google8protobuf13RepeatedFieldIdE7MutableEi",
            "__ZN6google8protobuf13RepeatedFieldIiE9MoveArrayEPiS3_i",
            "__ZN6google8protobuf13RepeatedFieldIxE3AddERKx",
            "__ZN6google8protobuf13RepeatedFieldIjE12mutable_dataEv",
            "__ZNK6google8protobuf13RepeatedFieldIjE8CapacityEv",
            "__ZNK6google8protobuf13RepeatedFieldIiE15unsafe_elementsEv",
            "_AbslInternalPerThreadSemPost_lts_20240722",
            "__ZN6google8protobuf13RepeatedFieldIfE6rbeginEv",
            "__ZN6google8protobuf13RepeatedFieldIbE3AddEv",
            "__ZN6google8protobuf16RepeatedPtrFieldINSt3__112basic_stringIcNS2_11char_traitsIcEENS2_9allocatorIcEEEEE15UnsafeArenaSwapEPS9_",
            "__ZNK6google8protobuf8internal16RepeatedIteratorIjEptEv",
            "__ZN6google8protobuf13RepeatedFieldIfEaSERKS2_",
            "__ZN6google8protobuf13RepeatedFieldIbE7ReserveEi",
            "__ZNK6google8protobuf13RepeatedFieldIfE8GetArenaEv",
            "__ZN6google8protobuf8internal21arena_destruct_objectINS0_13RepeatedFieldIyEEEEvPv",
            "__ZNSt3__116__variant_detail12__visitation6__base12__dispatcherIJLm3ELm3EEE10__dispatchB8ue170006IOZNS0_6__ctorINS0_8__traitsIJNS_9monostateENS_12basic_stringIcNS_11char_traitsIcEENS_9allocatorIcEEEENS_6vectorINS_4pairISE_NS_7variantIJdxEEEEENSC_ISJ_EEEEN28qvac_lib_inference_addon_cpp6OutputISE_E5ErrorENSO_6LogMsgEEEEE19__generic_constructB8ue170006INS0_18__move_constructorISR_LNS0_6_TraitE1EEEEEvRSS_OT_EUlRSY_OT0_E_JRNS0_6__baseILSV_1EJS8_SE_SL_SP_SQ_EEEOS16_EEEDcSY_DpT0_",
            "__ZNK6google8protobuf8internal16RepeatedIteratorIxEmiEl",
            "__ZN4absl12lts_2024072219str_format_internal17FormatRawSinkImpl5FlushINSt3__112basic_stringIcNS4_11char_traitsIcEENS4_9allocatorIcEEEEEEvPvNS0_11string_viewE",
            "__ZN6google8protobuf13RepeatedFieldIyE6ResizeEiRKy",
            "__ZN6google8protobuf13RepeatedFieldIyED2Ev",
            "__ZNK6google8protobuf8internal16RepeatedIteratorIbEmiEl",
            "__ZNK6google8protobuf13RepeatedFieldIxEixEi",
            "__ZNK6google8protobuf13RepeatedFieldIfE14GetOwningArenaEv",
            "__ZN6google8protobuf13RepeatedFieldIdE3AddEv",
            "__ZN6google8protobuf13RepeatedFieldIxE3AddEv",
            "__ZN6google8protobuf13RepeatedFieldIiE7MutableEi",
            "__ZN6google8protobuf13RepeatedFieldIyE8CopyFromERKS2_",
            "__ZN4absl12lts_2024072219str_format_internal13FormatArgImpl8DispatchIyEEbNS2_4DataENS1_24FormatConversionSpecImplEPv",
            "__ZNK6google8protobuf13RepeatedFieldIxE3endEv",
            "__ZN6google8protobuf13RepeatedFieldIyEC2Ev",
            "__ZNK6google8protobuf13RepeatedFieldIxE6rbeginEv",
            "__ZN6google8protobuf13RepeatedFieldIbE12SwapElementsEii",
            "__ZN6google8protobuf13RepeatedFieldIxEC2Ev",
            "__ZN6google8protobuf13RepeatedFieldIiEC1EOS2_",
            "__ZN6google8protobuf8internal21arena_destruct_objectINS0_13RepeatedFieldIiEEEEvPv",
            "__ZNK6google8protobuf16RepeatedPtrFieldINSt3__112basic_stringIcNS2_11char_traitsIcEENS2_9allocatorIcEEEEE2atEi",
            "__ZN6google8protobuf13RepeatedFieldIxEaSERKS2_",
            "__ZNK6google8protobuf13RepeatedFieldIiEixEi",
            "__ZNK6google8protobuf13RepeatedFieldIjE15unsafe_elementsEv",
            "__ZN4absl12lts_2024072218container_internal23TypeErasedApplyToSlotFnINS1_10StringHashENSt3__112basic_stringIcNS4_11char_traitsIcEENS4_9allocatorIcEEEEEEmPKvPv",
            "__ZN6google8protobuf13RepeatedFieldIfE3AddEv",
            "__ZN6google8protobuf13RepeatedFieldIbE6ResizeEiRKb",
            "__ZNK6google8protobuf13RepeatedFieldIyE8elementsEv",
            "__ZN6google8protobuf13RepeatedFieldIjE9MergeFromERKS2_",
            "__ZN4absl12lts_2024072219str_format_internal13ConvertIntArgIjEEbT_NS1_24FormatConversionSpecImplEPNS1_14FormatSinkImplE",
            "__ZN6google8protobuf13RepeatedFieldIbE3endEv",
            "__ZN6google8protobuf13RepeatedFieldIjE15ExtractSubrangeEiiPj",
            "__ZN4absl12lts_2024072216strings_internal11BigUnsignedILi84EEC1ENS0_11string_viewE",
            "__ZNSt3__116__variant_detail12__visitation6__base12__dispatcherIJLm1ELm1EEE10__dispatchB8ue170006IOZNS0_6__ctorINS0_8__traitsIJNS_9monostateENS_12basic_stringIcNS_11char_traitsIcEENS_9allocatorIcEEEENS_6vectorINS_4pairISE_NS_7variantIJdxEEEEENSC_ISJ_EEEEN28qvac_lib_inference_addon_cpp6OutputISE_E5ErrorENSO_6LogMsgEEEEE19__generic_constructB8ue170006INS0_18__move_constructorISR_LNS0_6_TraitE1EEEEEvRSS_OT_EUlRSY_OT0_E_JRNS0_6__baseILSV_1EJS8_SE_SL_SP_SQ_EEEOS16_EEEDcSY_DpT0_",
            "__ZN6google8protobuf8internal16RepeatedIteratorIjEC1Ev",
            "_AbslInternalReportFatalUsageError_lts_20240722",
            "__ZNK6google8protobuf13RepeatedFieldIdE8elementsEv",
            "__ZN6google8protobuf16RepeatedPtrFieldINSt3__112basic_stringIcNS2_11char_traitsIcEENS2_9allocatorIcEEEEE26UnsafeArenaExtractSubrangeEiiPPS8_",
            "__ZN6google8protobuf13RepeatedFieldIiE8TruncateEi",
            "__ZNK6google8protobuf16RepeatedPtrFieldINSt3__112basic_stringIcNS2_11char_traitsIcEENS2_9allocatorIcEEEEE5beginEv",
            "__ZNK6google8protobuf13RepeatedFieldIyE4sizeEv",
            "__ZN6google8protobuf13RepeatedFieldIiE12mutable_dataEv",
            "__ZN6google8protobuf8internal19arena_delete_objectINSt3__112basic_stringIcNS3_11char_traitsIcEENS3_9allocatorIcEEEEEEvPv",
            "__ZN6google8protobuf13RepeatedFieldIfEaSEOS2_",
            "__ZN4absl12lts_2024072216strings_internal11BigUnsignedILi84EEC1Ey",
            "__ZNK6google8protobuf16RepeatedPtrFieldINSt3__112basic_stringIcNS2_11char_traitsIcEENS2_9allocatorIcEEEEE26SpaceUsedExcludingSelfLongEv",
            "__ZN4absl12lts_2024072213base_internal10AtomicHookIPFvPKcPKvEE13DummyFunctionES4_S6_",
            "__ZN6google8protobuf8internal16RepeatedIteratorIbEC2Ev",
            "__ZNK6google8protobuf13RepeatedFieldIjE6rbeginEv",
            "__ZN6google8protobuf13RepeatedFieldIyE19AddNAlreadyReservedEi",
            "__ZN6google8protobuf13RepeatedFieldIyE6rbeginEv",
            "__ZN6google8protobuf13RepeatedFieldIfE3AddERKf",
            "__ZN6google8protobuf13RepeatedFieldIiEC1EPNS0_5ArenaE",
            "__ZN6google8protobuf13RepeatedFieldIjE7MutableEi",
            "__ZN6google8protobuf13RepeatedFieldIxEC1Ev",
            "__ZN6google8protobuf13RepeatedFieldIjE12SwapElementsEii",
            "__ZNSt3__116__variant_detail12__visitation6__base12__dispatcherIJLm0ELm0EEE10__dispatchB8ue170006IOZNS0_6__ctorINS0_8__traitsIJNS_9monostateENS_12basic_stringIcNS_11char_traitsIcEENS_9allocatorIcEEEENS_6vectorINS_4pairISE_NS_7variantIJdxEEEEENSC_ISJ_EEEEN28qvac_lib_inference_addon_cpp6OutputISE_E5ErrorENSO_6LogMsgEEEEE19__generic_constructB8ue170006INS0_18__move_constructorISR_LNS0_6_TraitE1EEEEEvRSS_OT_EUlRSY_OT0_E_JRNS0_6__baseILSV_1EJS8_SE_SL_SP_SQ_EEEOS16_EEEDcSY_DpT0_",
            "__ZN6google8protobuf13RepeatedFieldIjE5eraseENS0_8internal16RepeatedIteratorIKjEE",
            "__ZNK6google8protobuf13RepeatedFieldIdE5beginEv",
            "__ZN6google8protobuf13RepeatedFieldIbEC1EPNS0_5ArenaE",
            "__ZN6google8protobuf8internal16RepeatedIteratorIxEC1Ev",
            "__ZN6google8protobuf13RepeatedFieldIyE4SwapEPS2_",
            "__ZN4absl12lts_2024072218container_internal19find_first_non_fullIvEENS1_8FindInfoERKNS1_12CommonFieldsEm",
            "__ZN4absl12lts_2024072216strings_internal11BigUnsignedILi84EE22MultiplyByFiveToTheNthEi",
            "__ZN6google8protobuf13RepeatedFieldIfE9MoveArrayEPfS3_i",
            "__ZN6google8protobuf13RepeatedFieldIfED1Ev",
            "__ZN4absl12lts_2024072216strings_internal11BigUnsignedILi4EE21MultiplyByTenToTheNthEi",
            "__ZN6google8protobuf13RepeatedFieldIyE12InternalSwapEPS2_",
            "__ZN6google8protobuf13RepeatedFieldIbEC2EPNS0_5ArenaE",
            "__ZN6google8protobuf8internal16RepeatedIteratorIiEmmEi",
            "__ZNK6google8protobuf13RepeatedFieldIbE14GetOwningArenaEv",
            "__ZN6google8protobuf13RepeatedFieldIbE5eraseENS0_8internal16RepeatedIteratorIKbEES6_",
            "__ZN6google8protobuf13RepeatedFieldIiED2Ev",
            "__ZN6google8protobuf13RepeatedFieldIyE12SwapElementsEii",
            "__ZN4absl12lts_2024072216strings_internal11BigUnsignedILi4EE12FiveToTheNthEi",
            "__ZN6google8protobuf13RepeatedFieldIdEaSERKS2_",
            "__ZN4absl12lts_2024072216strings_internal11BigUnsignedILi84EE10MultiplyByEy",
            "__ZN6google8protobuf8internal16RepeatedIteratorIdEmmEv",
            "__ZN6google8protobuf13RepeatedFieldIjEC2Ev",
            "__ZN6google8protobuf13RepeatedFieldIxE8TruncateEi",
            "_AbslInternalSleepFor_lts_20240722",
            "__ZN6google8protobuf13RepeatedFieldIjE6ResizeEiRKj",
            "__ZN6google8protobuf13RepeatedFieldIiEC1ERKS2_",
            "__ZN6google8protobuf13RepeatedFieldIbE12mutable_dataEv",
            "__ZN4absl12lts_2024072214flags_internal7FlagOpsIiEEPvNS1_6FlagOpEPKvS3_S3_",
            "__ZN6google8protobuf13RepeatedFieldIfEC2ERKS2_",
            "__ZN6google8protobuf8internal13MergeFromImplILb1EEEbNS0_20stringpiece_internal11StringPieceEPNS0_11MessageLiteENS5_10ParseFlagsE",
            "__ZN6google8protobuf13RepeatedFieldIbE4rendEv",
            "__ZN4absl12lts_2024072216strings_internal11BigUnsignedILi84EE12AddWithCarryEij",
            "__ZN6google8protobuf13RepeatedFieldIxE7MutableEi",
            "__ZN6google8protobuf13RepeatedFieldIiEC1Ev",
            "__ZNSt3__116__variant_detail12__visitation6__base12__dispatcherIJLm2ELm2EEE10__dispatchB8ue170006IOZNS0_6__ctorINS0_8__traitsIJNS_9monostateENS_12basic_stringIcNS_11char_traitsIcEENS_9allocatorIcEEEENS_6vectorINS_4pairISE_NS_7variantIJdxEEEEENSC_ISJ_EEEEN28qvac_lib_inference_addon_cpp6OutputISE_E5ErrorENSO_6LogMsgEEEEE19__generic_constructB8ue170006INS0_18__move_constructorISR_LNS0_6_TraitE1EEEEEvRSS_OT_EUlRSY_OT0_E_JRNS0_6__baseILSV_1EJS8_SE_SL_SP_SQ_EEEOS16_EEEDcSY_DpT0_",
            "__ZNK6google8protobuf13RepeatedFieldIyE2atEi",
            "__ZN6google8protobuf13RepeatedFieldIyEC1Ev",
            "__ZN6google8protobuf13RepeatedFieldIxE15UnsafeArenaSwapEPS2_",
            "__ZN6google8protobuf13RepeatedFieldIdE19AddNAlreadyReservedEi",
            "__ZN6google8protobuf8internal16RepeatedIteratorIdEmIEl",
            "__ZN4absl12lts_2024072216strings_internal11BigUnsignedILi4EE9SetToZeroEv",
            "__ZN4absl12lts_2024072219str_format_internal17FormatRawSinkImpl5FlushINSt3__113basic_ostreamIcNS4_11char_traitsIcEEEEEEvPvNS0_11string_viewE",
            "__ZN6google8protobuf13RepeatedFieldIfE19AddNAlreadyReservedEi",
            "__ZNK4absl12lts_2024072216strings_internal11BigUnsignedILi84EE7GetWordEi",
            "__ZN6google8protobuf16RepeatedPtrFieldINSt3__112basic_stringIcNS2_11char_traitsIcEENS2_9allocatorIcEEEEE11pointer_endEv",
            "__ZNK6google8protobuf13RepeatedFieldIyE4cendEv",
            "__ZN6google8protobuf16RepeatedPtrFieldINSt3__112basic_stringIcNS2_11char_traitsIcEENS2_9allocatorIcEEEEEaSERKS9_",
            "_AbslInternalPerThreadSemPoke_lts_20240722",
            "__ZN6google8protobuf8internal21arena_destruct_objectINSt3__13mapIiNS1_12ExtensionSet9ExtensionENS3_4lessIiEENS3_9allocatorINS3_4pairIKiS6_EEEEEEEEvPv",
            "__ZNK6google8protobuf13RepeatedFieldIjEixEi",
            "__ZNK6google8protobuf16RepeatedPtrFieldINSt3__112basic_stringIcNS2_11char_traitsIcEENS2_9allocatorIcEEEEE8GetArenaEv",
            "__ZN6google8protobuf16RepeatedPtrFieldINSt3__112basic_stringIcNS2_11char_traitsIcEENS2_9allocatorIcEEEEEC1EOS9_",
            "__ZN29AbslFlagHelpGenForminloglevel8NonConstEv",
            "__ZN4absl12lts_2024072218container_internal23TypeErasedApplyToSlotFnINS1_10StringHashENS0_11string_viewEEEmPKvPv",
            "__ZN6google8protobuf13RepeatedFieldIdEC1Ev",
            "__ZN6google8protobuf13RepeatedFieldIxE8CopyFromERKS2_",
            "__ZN6google8protobuf13RepeatedFieldIyE4rendEv",
            "__ZN6google8protobuf13RepeatedFieldIdEC2ERKS2_",
            "__ZNK6google8protobuf16RepeatedPtrFieldINSt3__112basic_stringIcNS2_11char_traitsIcEENS2_9allocatorIcEEEEE13pointer_beginEv",
            "__ZN6google8protobuf13RepeatedFieldIfE9MergeFromERKS2_",
            "__ZN6google8protobuf16RepeatedPtrFieldINSt3__112basic_stringIcNS2_11char_traitsIcEENS2_9allocatorIcEEEEED2Ev",
            "__ZN6google8protobuf13RepeatedFieldIxE5eraseENS0_8internal16RepeatedIteratorIKxEES6_",
            "__ZN6google8protobuf8internal21arena_destruct_objectINS0_13RepeatedFieldIjEEEEvPv",
            "__ZNK6google8protobuf13RepeatedFieldIyE14GetOwningArenaEv",
            "__ZN6google8protobuf13RepeatedFieldIiED1Ev",
            "__ZN6google8protobuf13RepeatedFieldIbE9CopyArrayEPbPKbi",
            "__ZNK6google8protobuf13RepeatedFieldIyE5beginEv",
            "__ZN6google8protobuf13RepeatedFieldIyE5ClearEv",
            "__ZN4absl12lts_2024072216strings_internal11BigUnsignedILi4EE12AddWithCarryEiy",
            "__ZN6google8protobuf13RepeatedFieldIxEixEi",
            "__ZNK6google8protobuf8internal16RepeatedIteratorIfEplEl",
            "__ZN6google8protobuf13RepeatedFieldIyE18AddAlreadyReservedERKy",
            "__ZN6google8protobuf13RepeatedFieldIjE5eraseENS0_8internal16RepeatedIteratorIKjEES6_",
            "__ZN4absl12lts_2024072219str_format_internal13ConvertIntArgIiEEbT_NS1_24FormatConversionSpecImplEPNS1_14FormatSinkImplE",
            "__ZN6google8protobuf16RepeatedPtrFieldINSt3__112basic_stringIcNS2_11char_traitsIcEENS2_9allocatorIcEEEEE12mutable_dataEv",
            "__ZN4absl12lts_2024072219str_format_internal13FormatArgImpl8DispatchINSt3__112basic_stringIcNS4_11char_traitsIcEENS4_9allocatorIcEEEEEEbNS2_4DataENS1_24FormatConversionSpecImplEPv",
            "__ZN6google8protobuf16RepeatedPtrFieldINSt3__112basic_stringIcNS2_11char_traitsIcEENS2_9allocatorIcEEEEE9MergeFromERKS9_",
            "__ZN6google8protobuf13RepeatedFieldIfE10RemoveLastEv",
            "__ZN6google8protobuf13RepeatedFieldIdEC2EPNS0_5ArenaE",
            "__ZN6google8protobuf13RepeatedFieldIbED1Ev",
            "__ZN6google8protobuf13RepeatedFieldIfE2atEi",
            "__ZNK6google8protobuf13RepeatedFieldIbE3endEv",
            "__ZNK6google8protobuf13RepeatedFieldIxE4cendEv",
            "__ZN6google8protobuf16RepeatedPtrFieldINSt3__112basic_stringIcNS2_11char_traitsIcEENS2_9allocatorIcEEEEE12AddAllocatedEPS8_",
            "__ZNK6google8protobuf13RepeatedFieldIxE15unsafe_elementsEv",
            "__ZNK6google8protobuf13RepeatedFieldIjE14GetOwningArenaEv",
            "__ZN6google8protobuf13RepeatedFieldIjE8TruncateEi",
            "__ZN6google8protobuf13RepeatedFieldIfE9CopyArrayEPfPKfi",
            "__ZNSt3__116__variant_detail12__visitation6__base12__dispatcherIJLm0EEE10__dispatchB8ue170006IONS1_9__variant15__value_visitorIZN28qvac_lib_inference_addon_cpp5AddonIN35qvac_lib_inference_addon_mlc_marian16TranslationModelEE16jsOutputCallbackEP10uv_async_sEUlOT_E_EEJRNS0_6__baseILNS0_6_TraitE0EJdxEEEEEEDcSF_DpT0_",
            "__ZNK6google8protobuf8internal16RepeatedIteratorIxEplEl",
            "__ZN4absl12lts_2024072216strings_internal11BigUnsignedILi84EE12AddWithCarryEiy",
            "__ZN4absl12lts_2024072219str_format_internal13FormatArgImpl8DispatchIeEEbNS2_4DataENS1_24FormatConversionSpecImplEPv",
            "_AbslInternalSpinLockDelay_lts_20240722",
            "__ZZZN28qvac_lib_inference_addon_cpp5AddonIN35qvac_lib_inference_addon_mlc_marian16TranslationModelEE26initializeProcessingThreadEP8js_env_sP10js_value_sS7_S7_ENKUlvE1_clEvENUlP11uv_handle_sE_8__invokeESA_",
            "__ZNK6google8protobuf8internal16RepeatedIteratorIyEptEv",
            "__ZNK6google8protobuf8internal16RepeatedIteratorIbEplEl",
            "__ZN6google8protobuf13RepeatedFieldIyEC1EOS2_",
            "__ZN6google8protobuf8internal16RepeatedIteratorIxEppEi",
            "__ZN6google8protobuf13RepeatedFieldIfEC1Ev",
            "__ZN6google8protobuf13RepeatedFieldIdEC2EOS2_",
            "__ZN6google8protobuf8internal16RepeatedIteratorIxEC2EPx",
            "__ZN6google8protobuf8internal16RepeatedIteratorIxEmmEi",
            "__ZN6google8protobuf13RepeatedFieldIdE12SwapElementsEii",
            "__ZN6google8protobuf13RepeatedFieldIiE9MergeFromERKS2_",
            "__ZNK6google8protobuf8internal16RepeatedIteratorIfEmiEl",
            "__ZN6google8protobuf13RepeatedFieldIfED2Ev",
            "__ZN6google8protobuf13RepeatedFieldIjEC1EPNS0_5ArenaE",
            "__ZNK6google8protobuf13RepeatedFieldIyE3repEv",
            "__ZN4absl12lts_2024072216strings_internal11BigUnsignedILi84EEC1Ev",
            "__ZNK6google8protobuf13RepeatedFieldIyE4dataEv",
            "__ZNK6google8protobuf13RepeatedFieldIxE3GetEi",
            "__ZN4absl12lts_2024072218container_internal12raw_hash_setINS1_17FlatHashMapPolicyINSt3__112basic_stringIcNS4_11char_traitsIcEENS4_9allocatorIcEEEEhEENS1_10StringHashENS1_8StringEqENS8_INS4_4pairIKSA_hEEEEE16transfer_slot_fnEPvSJ_SJ_",
            "__ZN6google8protobuf16RepeatedPtrFieldINSt3__112basic_stringIcNS2_11char_traitsIcEENS2_9allocatorIcEEEEEC2EOS9_",
            "__ZN6google8protobuf8internal16RepeatedIteratorIfEmmEi",
            "__ZN6google8protobuf13RepeatedFieldIyE7MutableEi",
            "__ZN4absl12lts_2024072216strings_internal11BigUnsignedILi4EE12MultiplyStepEiPKjii",
            "__ZN6google8protobuf13RepeatedFieldIbE9MoveArrayEPbS3_i",
            "__ZN6google8protobuf16RepeatedPtrFieldINSt3__112basic_stringIcNS2_11char_traitsIcEENS2_9allocatorIcEEEEE4rendEv",
            "__ZN4absl12lts_2024072219str_format_internal13ConvertIntArgIcEEbT_NS1_24FormatConversionSpecImplEPNS1_14FormatSinkImplE",
            "__ZN6google8protobuf13RepeatedFieldIdE10RemoveLastEv",
            "__ZN6google8protobuf8internal21arena_destruct_objectINS0_16RepeatedPtrFieldINSt3__112basic_stringIcNS4_11char_traitsIcEENS4_9allocatorIcEEEEEEEEvPv",
            "__ZN4absl12lts_2024072219str_format_internal13ConvertIntArgImEEbT_NS1_24FormatConversionSpecImplEPNS1_14FormatSinkImplE",
            "__ZN6google8protobuf13RepeatedFieldIiE18InternalDeallocateEPNS2_3RepEib",
            "__ZN6google8protobuf8internal18ThreadLocalStorageINS1_15ThreadSafeArena11ThreadCacheEE6DeleteEPv",
            "__ZN6google8protobuf16RepeatedPtrFieldINSt3__112basic_stringIcNS2_11char_traitsIcEENS2_9allocatorIcEEEEE10AddClearedEPS8_",
            "__ZN4absl12lts_2024072216strings_internal11BigUnsignedILi84EEC2Ey",
            "_AbslInternalPerThreadSemInit_lts_20240722",
            "__ZN6google8protobuf13RepeatedFieldIfE15ExtractSubrangeEiiPf",
            "__ZN6google8protobuf8internal16RepeatedIteratorIiEppEi",
            "__ZN4absl12lts_2024072218container_internal12raw_hash_setINS1_17FlatHashMapPolicyINSt3__112basic_stringIcNS4_11char_traitsIcEENS4_9allocatorIcEEEEhEENS1_10StringHashENS1_8StringEqENS8_INS4_4pairIKSA_hEEEEE11resize_implERNS1_12CommonFieldsEmNS1_20HashtablezInfoHandleE",
            "__ZNK6google8protobuf13RepeatedFieldIbEixEi",
            "__ZN6google8protobuf13RepeatedFieldIdE7ReserveEi",
            "__ZN6google8protobuf8internal16RepeatedIteratorIiEmmEv",
            "__ZN6google8protobuf16RepeatedPtrFieldINSt3__112basic_stringIcNS2_11char_traitsIcEENS2_9allocatorIcEEEEE14DeleteSubrangeEii",
            "__ZNK6google8protobuf13RepeatedFieldIxE5emptyEv",
            "__ZNK6google8protobuf13RepeatedFieldIbE5emptyEv",
            "__ZN6google8protobuf16RepeatedPtrFieldINSt3__112basic_stringIcNS2_11char_traitsIcEENS2_9allocatorIcEEEEE23ExtractSubrangeInternalEiiPPS8_NS2_17integral_constantIbLb1EEE",
            "__ZNK6google8protobuf13RepeatedFieldIyE3GetEi",
            "__ZN4absl12lts_2024072219str_format_internal13ConvertIntArgIsEEbT_NS1_24FormatConversionSpecImplEPNS1_14FormatSinkImplE",
            "__ZN4absl12lts_2024072216strings_internal11BigUnsignedILi4EEC1ENS0_11string_viewE",
            "__ZN6google8protobuf13RepeatedFieldIfE7MutableEi",
            "__ZNK6google8protobuf13RepeatedFieldIxE8CapacityEv",
            "__ZNK6google8protobuf13RepeatedFieldIxE14GetOwningArenaEv",
            "__ZNK4absl12lts_2024072216strings_internal11BigUnsignedILi4EE8ToStringEv",
            "__ZN6google8protobuf8internal16RepeatedIteratorIjEC1EPj",
            "__ZNK6google8protobuf8internal16RepeatedIteratorIxEixEl",
            "__ZN6google8protobuf13RepeatedFieldIiEaSERKS2_",
            "__ZNK6google8protobuf13RepeatedFieldIjE4rendEv",
            "__ZNK6google8protobuf13RepeatedFieldIiE8elementsEv",
            "__ZNK6google8protobuf13RepeatedFieldIbE6cbeginEv",
            "__ZN6google8protobuf13RepeatedFieldIjEaSERKS2_",
            "__ZNK6google8protobuf8internal16RepeatedIteratorIdEixEl",
            "__ZNK6google8protobuf8internal16RepeatedIteratorIiEdeEv",
            "__ZN6google8protobuf16RepeatedPtrFieldINSt3__112basic_stringIcNS2_11char_traitsIcEENS2_9allocatorIcEEEEE11ReleaseLastEv",
            "__ZNK6google8protobuf8internal16RepeatedIteratorIjEdeEv",
            "__ZN6google8protobuf13RepeatedFieldIjE18AddAlreadyReservedEv",
            "__ZN6google8protobuf16RepeatedPtrFieldINSt3__112basic_stringIcNS2_11char_traitsIcEENS2_9allocatorIcEEEEE22UnsafeArenaReleaseLastEv",
            "__ZN6google8protobuf16RepeatedPtrFieldINSt3__112basic_stringIcNS2_11char_traitsIcEENS2_9allocatorIcEEEEE15ExtractSubrangeEiiPPS8_",
            "__ZN6google8protobuf8internal16RepeatedIteratorIdEC2Ev",
            "__ZN6google8protobuf13RepeatedFieldIjEC2ERKS2_",
            "__ZN6google8protobuf13RepeatedFieldIbE8TruncateEi",
            "__ZN6google8protobuf13RepeatedFieldIfEC2Ev",
            "__ZNK6google8protobuf8internal16RepeatedIteratorIiEmiEl",
            "__ZZN6google8protobuf8internal16OnShutdownDeleteINS0_16RepeatedPtrFieldINSt3__112basic_stringIcNS4_11char_traitsIcEENS4_9allocatorIcEEEEEEEEPT_SD_ENUlPKvE_8__invokeESF_",
            "__ZN6google8protobuf13RepeatedFieldIxE12InternalSwapEPS2_",
            "__ZNK6google8protobuf16RepeatedPtrFieldINSt3__112basic_stringIcNS2_11char_traitsIcEENS2_9allocatorIcEEEEE8CapacityEv",
            "__ZNK6google8protobuf13RepeatedFieldIfE5beginEv",
            "__ZN4absl12lts_2024072219str_format_internal13FormatArgImpl8DispatchIlEEbNS2_4DataENS1_24FormatConversionSpecImplEPv",
            "__ZN6google8protobuf13RepeatedFieldIiE3endEv",
            "__ZN6google8protobuf13RepeatedFieldIiE12InternalSwapEPS2_",
            "__ZN6google8protobuf13RepeatedFieldIiEC2EOS2_",
            "__ZN6google8protobuf13RepeatedFieldIjEaSEOS2_",
            "__ZN6google8protobuf13RepeatedFieldIbE9MergeFromERKS2_",
            "__ZN6google8protobuf8internal16RepeatedIteratorIxEmmEv",
            "__ZN6google8protobuf16RepeatedPtrFieldINSt3__112basic_stringIcNS2_11char_traitsIcEENS2_9allocatorIcEEEEE3AddEOS8_",
            "__ZN6google8protobuf16RepeatedPtrFieldINSt3__112basic_stringIcNS2_11char_traitsIcEENS2_9allocatorIcEEEEE7MutableEi",
            "__ZN6google8protobuf13RepeatedFieldIdE9CopyArrayEPdPKdi",
            "__ZNK6google8protobuf13RepeatedFieldIyE3endEv",
            "__ZNK6google8protobuf8internal16RepeatedIteratorIiEptEv",
            "__ZNK6google8protobuf16RepeatedPtrFieldINSt3__112basic_stringIcNS2_11char_traitsIcEENS2_9allocatorIcEEEEE4cendEv",
            "__ZNK6google8protobuf13RepeatedFieldIjE26SpaceUsedExcludingSelfLongEv",
            "__ZNK6google8protobuf13RepeatedFieldIbE5beginEv",
            "__ZNK6google8protobuf13RepeatedFieldIfE26SpaceUsedExcludingSelfLongEv",
            "__ZNK6google8protobuf13RepeatedFieldIjE4sizeEv",
            "__ZN6google8protobuf13RepeatedFieldIyEaSEOS2_",
            "__ZN6google8protobuf8internal16RepeatedIteratorIyEpLEl",
            "__ZN6google8protobuf16RepeatedPtrFieldINSt3__112basic_stringIcNS2_11char_traitsIcEENS2_9allocatorIcEEEEEC2EPNS0_5ArenaE",
            "__ZNK6google8protobuf13RepeatedFieldIdE3repEv",
            "__ZN6google8protobuf13RepeatedFieldIyE3AddERKy",
            "__ZN6google8protobuf13RepeatedFieldIbE5ClearEv",
            "__ZN6google8protobuf13RepeatedFieldIxE5eraseENS0_8internal16RepeatedIteratorIKxEE",
            "__ZN6google8protobuf13RepeatedFieldIxE6ResizeEiRKx",
            "__ZN6google8protobuf16RepeatedPtrFieldINSt3__112basic_stringIcNS2_11char_traitsIcEENS2_9allocatorIcEEEEE14ReleaseClearedEv",
            "__ZN6google8protobuf13RepeatedFieldIdE3Rep8elementsEv",
            "__ZN6google8protobuf8internal16RepeatedIteratorIiEppEv",
            "__ZN4absl12lts_2024072216strings_internal11BigUnsignedILi4EE9ShiftLeftEi",
            "__ZN6google8protobuf16RepeatedPtrFieldINSt3__112basic_stringIcNS2_11char_traitsIcEENS2_9allocatorIcEEEEE6rbeginEv",
            "__ZN6google8protobuf16RepeatedPtrFieldINSt3__112basic_stringIcNS2_11char_traitsIcEENS2_9allocatorIcEEEEE12SwapElementsEii",
            "__ZN4absl12lts_2024072219str_format_internal13FormatArgImpl8DispatchIbEEbNS2_4DataENS1_24FormatConversionSpecImplEPv",
            "__ZNK6google8protobuf13RepeatedFieldIbE6rbeginEv",
            "__ZNK6google8protobuf13RepeatedFieldIjE6cbeginEv",
            "__ZN6google8protobuf13RepeatedFieldIyE5eraseENS0_8internal16RepeatedIteratorIKyEES6_",
            "__ZNK6google8protobuf13RepeatedFieldIbE26SpaceUsedExcludingSelfLongEv",
            "__ZN6google8protobuf16RepeatedPtrFieldINSt3__112basic_stringIcNS2_11char_traitsIcEENS2_9allocatorIcEEEEEC2Ev",
            "__ZN6google8protobuf13RepeatedFieldIbEixEi",
            "__ZNK6google8protobuf8internal16RepeatedIteratorIdEdeEv",
            "__ZN6google8protobuf8internal16RepeatedIteratorIfEppEi",
            "__ZN6google8protobuf8internal13MergeFromImplILb0EEEbPNS0_2io19ZeroCopyInputStreamEPNS0_11MessageLiteENS6_10ParseFlagsE",
            "__ZN6google8protobuf8internal16RepeatedIteratorIfEC1Ev",
            "__ZNK6google8protobuf13RepeatedFieldIfE6cbeginEv",
            "__ZN6google8protobuf13RepeatedFieldIiE5beginEv",
            "__ZN6google8protobuf13RepeatedFieldIdEixEi",
            "__ZN4absl12lts_2024072216strings_internal11BigUnsignedILi84EE17ReadFloatMantissaERKNS1_11ParsedFloatEi",
            "__ZN6google8protobuf13RepeatedFieldIbE15ExtractSubrangeEiiPb",
            "__ZN6google8protobuf13RepeatedFieldIjED1Ev",
            "__ZNK4absl12lts_2024072216strings_internal11BigUnsignedILi84EE4sizeEv",
            "__ZNK6google8protobuf13RepeatedFieldIiE8GetArenaEv",
            "__ZN6google8protobuf13RepeatedFieldIjE3AddEv",
            "__ZN4absl12lts_2024072216strings_internal11BigUnsignedILi84EEC2Ev",
            "__ZN6google8protobuf13RepeatedFieldIdEC1ERKS2_",
            "__ZN6google8protobuf13RepeatedFieldIxEaSEOS2_",
            "__ZN6google8protobuf13RepeatedFieldIyEC2EOS2_",
            "__ZN4absl12lts_2024072219str_format_internal13FormatArgImpl8DispatchINSt3__112basic_stringIwNS4_11char_traitsIwEENS4_9allocatorIwEEEEEEbNS2_4DataENS1_24FormatConversionSpecImplEPv",
            "__ZN6google8protobuf13RepeatedFieldIjEC1EOS2_",
            "__ZN6google8protobuf13RepeatedFieldIbE10RemoveLastEv",
            "__ZNK6google8protobuf13RepeatedFieldIjE2atEi",
            "__ZNK6google8protobuf13RepeatedFieldIxE3repEv",
            "__ZNK6google8protobuf13RepeatedFieldIjE3GetEi",
            "__ZN6google8protobuf13RepeatedFieldIyE15ExtractSubrangeEiiPy",
            "__ZN4absl12lts_2024072216strings_internal11BigUnsignedILi4EE8Digits10Ev",
            "__ZN6google8protobuf13RepeatedFieldIyEixEi",
            "__ZN6google8protobuf13RepeatedFieldIdE15ExtractSubrangeEiiPd",
            "__ZN6google8protobuf13RepeatedFieldIyEC1EPNS0_5ArenaE",
            "__ZN6google8protobuf13RepeatedFieldIdE8CopyFromERKS2_",
            "__ZN6google8protobuf13RepeatedFieldIjE19AddNAlreadyReservedEi",
            "__ZN6google8protobuf16RepeatedPtrFieldINSt3__112basic_stringIcNS2_11char_traitsIcEENS2_9allocatorIcEEEEE5ClearEv",
            "__ZNK6google8protobuf13RepeatedFieldIyE8CapacityEv",
            "__ZN6google8protobuf13RepeatedFieldIbED2Ev",
            "__ZNK6google8protobuf13RepeatedFieldIxE4dataEv",
            "__ZN6google8protobuf16RepeatedPtrFieldINSt3__112basic_stringIcNS2_11char_traitsIcEENS2_9allocatorIcEEEEE13pointer_beginEv",
            "__ZN6google8protobuf13RepeatedFieldIjEC2EOS2_",
            "__ZN4absl12lts_2024072219str_format_internal13FormatArgImpl8DispatchIfEEbNS2_4DataENS1_24FormatConversionSpecImplEPv",
            "__ZN4absl12lts_2024072213base_internal10AtomicHookIPFvPKciS4_S4_S4_EE13DummyFunctionES4_iS4_S4_S4_",
            "__ZNK6google8protobuf13RepeatedFieldIiE4dataEv",
            "__ZN6google8protobuf13RepeatedFieldIiE3AddERKi",
            "__ZN6google8protobuf13RepeatedFieldIbEC2EOS2_",
            "__ZN6google8protobuf8internal16RepeatedIteratorIbEpLEl",
            "__ZN6google8protobuf13RepeatedFieldIfE15UnsafeArenaSwapEPS2_",
            "__ZNK6google8protobuf8internal16RepeatedIteratorIbEptEv",
            "__ZNK6google8protobuf13RepeatedFieldIdE8CapacityEv",
            "__ZN6google8protobuf13RepeatedFieldIfE5eraseENS0_8internal16RepeatedIteratorIKfEES6_",
            "__ZNK6google8protobuf13RepeatedFieldIdE8GetArenaEv",
            "__ZN6google8protobuf8internal16RepeatedIteratorIiEpLEl",
            "__ZNK6google8protobuf13RepeatedFieldIbE3repEv",
            "__ZNK6google8protobuf13RepeatedFieldIxE26SpaceUsedExcludingSelfLongEv",
            "__ZN6google8protobuf13RepeatedFieldIiEixEi",
            "__ZN6google8protobuf13RepeatedFieldIiE10RemoveLastEv",
            "__ZN6google8protobuf8internal16RepeatedIteratorIyEC1Ev",
            "__ZNK6google8protobuf13RepeatedFieldIdE4cendEv",
            "__ZNK6google8protobuf13RepeatedFieldIjE3endEv",
            "__ZN6google8protobuf16RepeatedPtrFieldINSt3__112basic_stringIcNS2_11char_traitsIcEENS2_9allocatorIcEEEEE5beginEv",
            "__ZN6google8protobuf13RepeatedFieldIdE9MoveArrayEPdS3_i",
            "__ZN4absl12lts_2024072219str_format_internal17FormatRawSinkImpl5FlushINS1_11FILERawSinkEEEvPvNS0_11string_viewE",
            "__ZN6google8protobuf8internal21arena_destruct_objectINS0_13RepeatedFieldIbEEEEvPv",
            "__ZN6google8protobuf13RepeatedFieldIxE18AddAlreadyReservedEv",
            "__ZN6google8protobuf13RepeatedFieldIdE3AddERKd",
            "__ZNK6google8protobuf13RepeatedFieldIdEixEi",
            "__ZN4absl12lts_202407229Condition10AlwaysTrueEPKS1_",
            "__ZNK6google8protobuf16RepeatedPtrFieldINSt3__112basic_stringIcNS2_11char_traitsIcEENS2_9allocatorIcEEEEE6cbeginEv",
            "__ZN6google8protobuf8internal16RepeatedIteratorIxEC2Ev",
            "__ZN6google8protobuf8internal16RepeatedIteratorIjEppEi",
            "__ZN6google8protobuf13RepeatedFieldIbE19AddNAlreadyReservedEi",
            "__ZN6google8protobuf13RepeatedFieldIdED2Ev",
            "__ZNK6google8protobuf13RepeatedFieldIjE5beginEv",
            "__ZNK6google8protobuf8internal16RepeatedIteratorIfEptEv",
            "__ZN6google8protobuf8internal16RepeatedIteratorIiEC2EPi",
            "__ZNK6google8protobuf13RepeatedFieldIxE2atEi",
            "__ZNK6google8protobuf13RepeatedFieldIfE3endEv",
            "__ZNK6google8protobuf13RepeatedFieldIyE5emptyEv",
            "__ZN6google8protobuf13RepeatedFieldIxE2atEi",
            "__ZN6google8protobuf8internal13MergeFromImplILb0EEEbNS1_11BoundedZCISEPNS0_11MessageLiteENS4_10ParseFlagsE",
            "__ZN6google8protobuf13RepeatedFieldIiE18AddAlreadyReservedERKi",
            "__ZN6google8protobuf13RepeatedFieldIdE2atEi",
            "__ZNK6google8protobuf13RepeatedFieldIyE4rendEv",
            "__ZN6google8protobuf13RepeatedFieldIjE10RemoveLastEv",
            "__ZN6google8protobuf13RepeatedFieldIyE15UnsafeArenaSwapEPS2_",
            "_AbslInternalPerThreadSemWait_lts_20240722",
            "__ZN6google8protobuf16RepeatedPtrFieldINSt3__112basic_stringIcNS2_11char_traitsIcEENS2_9allocatorIcEEEEE3AddEv",
            "__ZNK6google8protobuf13RepeatedFieldIdE4sizeEv",
            "__ZN6google8protobuf13RepeatedFieldIbE6rbeginEv",
            "__ZN6google8protobuf13RepeatedFieldIdEC1EPNS0_5ArenaE",
            "__ZNK6google8protobuf13RepeatedFieldIbE4rendEv",
            "__ZN4absl12lts_2024072216strings_internal11BigUnsignedILi84EE12FiveToTheNthEi",
            "__ZN6google8protobuf13RepeatedFieldIdE5beginEv",
            "__ZNK6google8protobuf13RepeatedFieldIfE4sizeEv",
            "__ZN4absl12lts_2024072219str_format_internal13FormatArgImpl8DispatchIiEEbNS2_4DataENS1_24FormatConversionSpecImplEPv",
            "__ZNK6google8protobuf13RepeatedFieldIyE6rbeginEv",
            "__ZN6google8protobuf13RepeatedFieldIfE3SetEiRKf",
            "__ZNK6google8protobuf13RepeatedFieldIfE4rendEv",
            "__ZNK6google8protobuf8internal16RepeatedIteratorIdEmiEl",
            "__ZN6google8protobuf13RepeatedFieldIbEC1ERKS2_",
            "__ZN6google8protobuf13RepeatedFieldIiE7ReserveEi",
            "__ZNK6google8protobuf13RepeatedFieldIdE4rendEv",
            "__ZN6google8protobuf13RepeatedFieldIiE2atEi",
            "__ZN6google8protobuf13RepeatedFieldIiE6rbeginEv",
            "__ZNK6google8protobuf8internal16RepeatedIteratorIdEptEv",
            "__ZN4absl12lts_2024072216strings_internal11BigUnsignedILi4EEC1Ev",
            "__ZN6google8protobuf8internal16RepeatedIteratorIyEC2EPy",
            "__ZNK6google8protobuf13RepeatedFieldIjE8GetArenaEv",
            "__ZN6google8protobuf8internal16RepeatedIteratorIiEC1Ev",
            "__ZNK6google8protobuf13RepeatedFieldIdE3endEv",
            "__ZN6google8protobuf8internal21arena_destruct_objectINS0_13RepeatedFieldIxEEEEvPv",
            "__ZN6google8protobuf13RepeatedFieldIyE9MoveArrayEPyS3_i",
            "__ZNK4absl12lts_2024072216strings_internal11BigUnsignedILi84EE8ToStringEv",
            "__ZNK4absl12lts_2024072216strings_internal11BigUnsignedILi4EE7GetWordEi",
            "__ZNK6google8protobuf13RepeatedFieldIyEixEi",
            "__ZN6google8protobuf13RepeatedFieldIjE6rbeginEv",
            "__ZN6google8protobuf8internal16RepeatedIteratorIyEmmEv",
            "__ZN6google8protobuf8internal21arena_destruct_objectINS1_16InternalMetadata9ContainerINSt3__112basic_stringIcNS5_11char_traitsIcEENS5_9allocatorIcEEEEEEEEvPv",
            "__ZN6google8protobuf13RepeatedFieldIxED1Ev",
            "__ZNK6google8protobuf13RepeatedFieldIxE4sizeEv",
            "__ZN4absl12lts_2024072219str_format_internal13ConvertIntArgIwEEbT_NS1_24FormatConversionSpecImplEPNS1_14FormatSinkImplE",
            "__ZN6google8protobuf13RepeatedFieldIfE5ClearEv",
            "__ZN6google8protobuf13RepeatedFieldIyE12mutable_dataEv",
            "__ZN4absl12lts_2024072216strings_internal11BigUnsignedILi84EE9ShiftLeftEi",
            "__ZNK6google8protobuf16RepeatedPtrFieldINSt3__112basic_stringIcNS2_11char_traitsIcEENS2_9allocatorIcEEEEE4dataEv",
            "__ZN6google8protobuf13RepeatedFieldIfEC1EOS2_",
            "__ZNK6google8protobuf13RepeatedFieldIxE5beginEv",
            "__ZN6google8protobuf16RepeatedPtrFieldINSt3__112basic_stringIcNS2_11char_traitsIcEENS2_9allocatorIcEEEEEixEi",
            "__ZNK6google8protobuf13RepeatedFieldIiE4sizeEv",
            "__ZN4absl12lts_2024072216strings_internal11BigUnsignedILi4EE12AddWithCarryEij",
            "__ZNK6google8protobuf13RepeatedFieldIdE14GetOwningArenaEv",
            "__ZNK6google8protobuf8internal16RepeatedIteratorIyEixEl",
            "__ZN6google8protobuf13RepeatedFieldIyE3SetEiRKy",
            "__ZNK6google8protobuf13RepeatedFieldIfEixEi"
          ]
        }
      }
    ],
    "flags": [
      {
        "attributes": [
          "not_app_extension_safe"
        ]
      }
    ],
    "install_names": [
      {
        "name": "tetherto__translation-nmtcpp@2.bare"
      }
    ],
    "target_info": [
      {
        "min_deployment": "14",
        "target": "x86_64-ios-simulator"
      }
    ]
  },
  "tapi_tbd_version": 5
}
