{
  "main_library": {
    "compatibility_versions": [
      {
        "version": "2"
      }
    ],
    "current_versions": [
      {
        "version": "2.5"
      }
    ],
    "exported_symbols": [
      {
        "data": {
          "global": [
            "__ZTI14TextLlmContext",
            "_INVALID_RULE_CHARS_RE",
            "__ZTIN4ggml3cpu13tensor_traitsE",
            "__ZTI19llama_memory_hybrid",
            "__ZTV26llm_graph_input_mem_hybrid",
            "__ZTSN4ggml3cpu17extra_buffer_typeE",
            "_LLAMA_BUILD_NUMBER",
            "__ZTV23llm_graph_input_out_ids",
            "__ZTI19llm_graph_input_pos",
            "_unicode_ranges_nfd",
            "__ZTV22llama_memory_recurrent",
            "__ZTV19llama_memory_hybrid",
            "__ZTV18llm_graph_input_rs",
            "_LLAMA_COMPILER",
            "__ZTI31llm_graph_input_attn_kv_unified",
            "__ZTV19llm_graph_input_pos",
            "__ZTS36llm_graph_input_attn_kv_unified_iswa",
            "__ZTI26llm_graph_input_mem_hybrid",
            "_ggml_table_gelu_f16",
            "__ZTI29llm_graph_input_attn_no_cache",
            "_unicode_set_whitespace",
            "__ZTS14MtmdLlmContext",
            "__ZTV29llm_graph_input_attn_no_cache",
            "__ZTI22llama_memory_recurrent",
            "__ZTI18llm_graph_input_rs",
            "__ZTS27llama_kv_cache_unified_iswa",
            "__ZTV23llm_graph_input_k_shift",
            "__ZTV19llm_graph_input_cls",
            "__ZTI26llm_graph_input_attn_cross",
            "__ZTV26llm_graph_input_attn_cross",
            "__ZTS20llm_graph_input_mean",
            "__ZTS35llama_kv_cache_unified_iswa_context",
            "__ZTV25llm_graph_input_attn_temp",
            "__ZTS19llm_graph_input_pos",
            "__ZTS25llm_graph_input_attn_temp",
            "__ZTI29llm_graph_input_pos_bucket_kv",
            "_unicode_map_lowercase",
            "__ZTS26llm_graph_input_attn_cross",
            "__ZTV20llm_graph_input_mean",
            "__ZTI23llm_graph_input_k_shift",
            "__ZTS26llm_graph_input_pos_bucket",
            "__ZTI30llama_memory_recurrent_context",
            "__ZTS26llm_graph_input_mem_hybrid",
            "__ZTS23llm_graph_input_out_ids",
            "__ZTV27llama_memory_hybrid_context",
            "__ZTI36llm_graph_input_attn_kv_unified_iswa",
            "__ZTVN4ggml3cpu17extra_buffer_typeE",
            "__ZTV36llm_graph_input_attn_kv_unified_iswa",
            "__ZTI20llm_graph_input_mean",
            "__ZTS31llm_graph_input_attn_kv_unified",
            "_LLAMA_BUILD_TARGET",
            "__ZTV27llama_kv_cache_unified_iswa",
            "_ggml_arm_arch_features",
            "__ZTS22llama_kv_cache_unified",
            "__ZTI25llm_graph_input_attn_temp",
            "_unicode_ranges_flags",
            "__ZTI26llm_graph_input_cross_embd",
            "_unicode_map_uppercase",
            "__ZTI35llama_kv_cache_unified_iswa_context",
            "__ZTV26llm_graph_input_cross_embd",
            "__ZTI30llama_kv_cache_unified_context",
            "_STRING_FORMAT_RULES",
            "__ZTS20llm_graph_input_embd",
            "__ZTI26llm_graph_input_pos_bucket",
            "__ZTS26llm_graph_input_cross_embd",
            "_ggml_metallib_start",
            "__ZTV14MtmdLlmContext",
            "__ZTS22llama_memory_recurrent",
            "__ZTI27llama_kv_cache_unified_iswa",
            "__ZTV31llm_graph_input_attn_kv_unified",
            "__ZTVN4ggml3cpu13tensor_traitsE",
            "_ggml_metallib_end",
            "_common_log_verbosity_thold",
            "__ZTS14TextLlmContext",
            "__ZTV30llama_kv_cache_unified_context",
            "_ESCAPED_IN_REGEXPS_BUT_NOT_IN_LITERALS",
            "__ZTV26llm_graph_input_pos_bucket",
            "_ggml_table_f32_f16",
            "__ZTV20llm_graph_input_embd",
            "__ZTS19llama_memory_hybrid",
            "_PRIMITIVE_RULES",
            "__ZTS29llm_graph_input_attn_no_cache",
            "__ZTI20llm_graph_input_embd",
            "__ZTS18llm_graph_input_rs",
            "__ZTS19llm_graph_input_cls",
            "__ZTI19llm_graph_input_cls",
            "__ZTI27llama_memory_hybrid_context",
            "__ZTIN4ggml3cpu17extra_buffer_typeE",
            "_NON_LITERAL_SET",
            "__ZTI22llama_kv_cache_unified",
            "__ZTS30llama_memory_recurrent_context",
            "__ZTV29llm_graph_input_pos_bucket_kv",
            "_GRAMMAR_LITERAL_ESCAPES",
            "__ZTI14MtmdLlmContext",
            "_g_logger_state",
            "_ggml_table_gelu_quick_f16",
            "_LLAMA_COMMIT",
            "_GRAMMAR_RANGE_LITERAL_ESCAPE_RE",
            "__ZTV22llama_kv_cache_unified",
            "_ggml_critical_section_mutex",
            "_mmproj_examples",
            "__ZN10llama_mmap9SUPPORTEDE",
            "__ZTV14TextLlmContext",
            "__ZTV30llama_memory_recurrent_context",
            "__ZTS27llama_memory_hybrid_context",
            "__ZTI23llm_graph_input_out_ids",
            "__ZN11llama_mlock9SUPPORTEDE",
            "__ZTSN4ggml3cpu13tensor_traitsE",
            "__ZTS30llama_kv_cache_unified_context",
            "__ZTS23llm_graph_input_k_shift",
            "_GRAMMAR_LITERAL_ESCAPE_RE",
            "__ZTV35llama_kv_cache_unified_iswa_context",
            "__ZTS29llm_graph_input_pos_bucket_kv"
          ],
          "objc_class": [
            "ggml_metal_heap_ptr"
          ],
          "weak": [
            "__ZGVZN5minja6Parser15parseExpressionEbE6if_tok",
            "__ZGVZNK5minja6Parser13parseTemplateERKNSt3__111__wrap_iterIPKNS1_10unique_ptrINS_13TemplateTokenENS1_14default_deleteIS4_EEEEEERSA_SC_bE20trailing_space_regex",
            "__ZGVZN5minja6Parser19parseLogicalCompareEvE11compare_tok",
            "__ZZN5minja6Parser8tokenizeEvE16block_open_regex",
            "__ZGVZN5minja6Parser15parseMathMulDivEvE11mul_div_tok",
            "__ZZN5minja6Parser17parseStringConcatEvE10concat_tok",
            "__ZZN5minja6Parser13parseVarNamesEvE14varnames_regex",
            "__ZGVZN5minja6Parser8tokenizeEvE17block_keyword_tok",
            "__ZZN5minja6Parser14parseLogicalOrEvE6or_tok",
            "__ZGVZN5minja6Parser15parseLogicalAndEvE7and_tok",
            "__ZZN5minja6Parser15parseLogicalNotEvE7not_tok",
            "__ZGVZN5minja6Parser8tokenizeEvE11comment_tok",
            "__ZN8picojson12last_error_tIbE1sE",
            "__ZZN5minja6Parser19parseLogicalCompareEvE11compare_tok",
            "__ZZZN5minja6Parser20parseValueExpressionEvENKUlvE_clEvE10null_regex",
            "__ZGVZN5minja6Parser8tokenizeEvE15expr_open_regex",
            "__ZGVZNK5minja6Parser13parseTemplateERKNSt3__111__wrap_iterIPKNS1_10unique_ptrINS_13TemplateTokenENS1_14default_deleteIS4_EEEEEERSA_SC_bE19leading_space_regex",
            "__ZGVZN5minja6Parser8tokenizeEvE17block_close_regex",
            "__ZGVZN5minja6Parser15parseIdentifierEvE11ident_regex",
            "__ZZN5minja6Parser8tokenizeEvE6if_tok",
            "__ZZN5minja6Parser23parseMathUnaryPlusMinusEvE20unary_plus_minus_tok",
            "__ZZN5minja6Parser8tokenizeEvE20namespaced_var_regex",
            "__ZZN5minja6Parser8tokenizeEvE11comment_tok",
            "__ZGVZN5minja6Parser8tokenizeEvE20namespaced_var_regex",
            "__ZZNK5minja6Parser13parseTemplateERKNSt3__111__wrap_iterIPKNS1_10unique_ptrINS_13TemplateTokenENS1_14default_deleteIS4_EEEEEERSA_SC_bE19leading_space_regex",
            "__ZZN5minja6Parser8tokenizeEvE15expr_open_regex",
            "__ZGVZN5minja6Parser8tokenizeEvE13recursive_tok",
            "__ZN28qvac_lib_inference_addon_cpp11JsInterfaceINS_5AddonI10LlamaModelEEE10instances_E",
            "__ZGVN28qvac_lib_inference_addon_cpp11JsInterfaceINS_5AddonI10LlamaModelEEE10instances_E",
            "__ZZN5minja6Parser15parseLogicalAndEvE7and_tok",
            "__ZGVZN5minja6Parser13parseVarNamesEvE14varnames_regex",
            "__ZZN5minja6Parser8tokenizeEvE13recursive_tok",
            "__ZGVZN5minja6Parser14parseExpansionEvE13expansion_tok",
            "__ZZN5minja6Parser15parseExpressionEbE6if_tok",
            "__ZZN5minja6Parser15parseMathMulDivEvE11mul_div_tok",
            "__ZGVZN5minja6Parser23parseMathUnaryPlusMinusEvE20unary_plus_minus_tok",
            "__ZZN5minja6Parser18parseMathPlusMinusEvE14plus_minus_tok",
            "__ZGVZN5minja6Parser17parseIfExpressionEvE8else_tok",
            "__ZZNK5minja6Parser13parseTemplateERKNSt3__111__wrap_iterIPKNS1_10unique_ptrINS_13TemplateTokenENS1_14default_deleteIS4_EEEEEERSA_SC_bE20trailing_space_regex",
            "__ZZN5minja6Parser8tokenizeEvE17block_close_regex",
            "__ZGVN28qvac_lib_inference_addon_cpp11JsInterfaceINS_5AddonI10LlamaModelEEE13instancesMtx_E",
            "__ZGVZN5minja6Parser8tokenizeEvE16expr_close_regex",
            "__ZZN5minja6Parser14parseExpansionEvE13expansion_tok",
            "__ZGVZN5minja6Parser8tokenizeEvE16block_open_regex",
            "__ZZN5minja6Parser8tokenizeEvE6in_tok",
            "__ZZN5minja6Parser8tokenizeEvE19non_text_open_regex",
            "__ZGVZN5minja6Parser13parseConstantEvE8prim_tok",
            "__ZN28qvac_lib_inference_addon_cpp11JsInterfaceINS_5AddonI10LlamaModelEEE13instancesMtx_E",
            "__ZGVZN5minja6Parser14parseLogicalOrEvE6or_tok",
            "__ZGVZN5minja6Parser19parseLogicalCompareEvE7not_tok",
            "__ZNSt3__119piecewise_constructE",
            "__ZZN5minja6Parser15parseIdentifierEvE11ident_regex",
            "__ZZN5minja6Parser8tokenizeEvE17block_keyword_tok",
            "__ZGVZN5minja6Parser18parseMathPlusMinusEvE14plus_minus_tok",
            "__ZZN5minja6Parser19parseLogicalCompareEvE7not_tok",
            "__ZGVN8picojson12last_error_tIbE1sE",
            "__ZZN5minja6Parser17parseIfExpressionEvE8else_tok",
            "__ZGVZZN5minja6Parser20parseValueExpressionEvENKUlvE_clEvE10null_regex",
            "__ZGVZN5minja6Parser15parseLogicalNotEvE7not_tok",
            "__ZZN5minja6Parser13parseConstantEvE8prim_tok",
            "__ZGVZN5minja6Parser8tokenizeEvE19non_text_open_regex",
            "__ZGVZN5minja6Parser17parseStringConcatEvE10concat_tok",
            "__ZGVZN5minja6Parser8tokenizeEvE6if_tok",
            "__ZZN5minja6Parser8tokenizeEvE16expr_close_regex",
            "__ZGVZN5minja6Parser8tokenizeEvE6in_tok"
          ]
        },
        "text": {
          "global": [
            "__Z20common_sampler_cloneP14common_sampler",
            "_stbi_load_from_memory",
            "__Z21common_sampler_sampleP14common_samplerP13llama_contextib",
            "__ZN10llama_fileC2EPKcS1_",
            "_ggml_dup",
            "__Z23common_set_adapter_loraP13llama_contextRNSt3__16vectorI24common_adapter_lora_infoNS1_9allocatorIS3_EEEE",
            "__ZN30llama_memory_recurrent_contextD1Ev",
            "__ZNK17llm_graph_context23build_attn_inp_no_cacheEv",
            "__Z21unicode_cpt_from_utf8RKNSt3__112basic_stringIcNS_11char_traitsIcEENS_9allocatorIcEEEERm",
            "_llama_context_default_params",
            "_ggml_backend_name",
            "__ZNK11llama_model9arch_nameEv",
            "_ggml_validate_row_data",
            "__ZN13llama_context17detach_threadpoolEv",
            "_ggml_compute_forward_concat",
            "__ZN22common_chat_msg_parserC2ERKNSt3__112basic_stringIcNS0_11char_traitsIcEENS0_9allocatorIcEEEEbRK18common_chat_syntax",
            "_quantize_iq3_xxs",
            "_ggml_arange",
            "__ZNK13llama_context12pooling_typeEv",
            "__Z38common_chat_msg_diff_to_json_oaicompatIN8nlohmann16json_abi_v3_12_010basic_jsonINS1_11ordered_mapENSt3__16vectorENS4_12basic_stringIcNS4_11char_traitsIcEENS4_9allocatorIcEEEEbxydS9_NS1_14adl_serializerENS5_IhNS9_IhEEEEvEEET_RK20common_chat_msg_diff",
            "__ZN30llama_memory_recurrent_contextC2EP22llama_memory_recurrentNSt3__16vectorI12llama_ubatchNS2_9allocatorIS4_EEEE",
            "_llama_n_vocab",
            "__ZN31llm_graph_input_attn_kv_unified9set_inputEPK12llama_ubatch",
            "_ggml_rope",
            "__ZNK11llama_vocab4impl9is_unusedEi",
            "__ZN22common_chat_msg_parser14add_tool_callsERKN8nlohmann16json_abi_v3_12_010basic_jsonINS1_11ordered_mapENSt3__16vectorENS4_12basic_stringIcNS4_11char_traitsIcEENS4_9allocatorIcEEEEbxydS9_NS1_14adl_serializerENS5_IhNS9_IhEEEEvEE",
            "_ggml_backend_dev_count",
            "_ggml_backend_is_metal",
            "__ZN22common_chat_msg_parser16try_find_literalERKNSt3__112basic_stringIcNS0_11char_traitsIcEENS0_9allocatorIcEEEE",
            "__Z19ggml_quantize_mat_tILx8EL9ggml_type15EEvPKfPvxx",
            "__ZN35llama_kv_cache_unified_iswa_contextC1EP27llama_kv_cache_unified_iswaNSt3__16vectorIjNS2_9allocatorIjEEEES6_NS3_I12llama_ubatchNS4_IS7_EEEE",
            "_ggml_compute_forward_unary",
            "_mtmd_bitmap_get_id",
            "__ZN30llama_memory_recurrent_contextD2Ev",
            "_ggml_backend_sched_get_backend",
            "__ZNK11llama_vocab9token_eosEv",
            "_ggml_backend_cpu_init",
            "__ZNK10llama_file9write_u32Ej",
            "__ZN22llama_kv_cache_unified11init_updateEP13llama_contextb",
            "_ggml_backend_dev_buffer_from_host_ptr",
            "__ZN18llama_batch_allocr11split_equalEj",
            "_ggml_print_backtrace",
            "__Z27common_chat_templates_applyPK21common_chat_templatesRK28common_chat_templates_inputs",
            "__ZNK15common_chat_msg17to_json_oaicompatIN8nlohmann16json_abi_v3_12_010basic_jsonINS2_11ordered_mapENSt3__16vectorENS5_12basic_stringIcNS5_11char_traitsIcEENS5_9allocatorIcEEEEbxydSA_NS2_14adl_serializerENS6_IhNSA_IhEEEEvEEEET_v",
            "_ggml_quantize_chunk",
            "_ggml_sqr_inplace",
            "_ggml_vec_dot_iq4_xs_q8_K",
            "_ggml_backend_init_by_name",
            "_stbi_zlib_decode_noheader_buffer",
            "_ggml_compute_forward_flash_attn_back",
            "_ggml_im2col",
            "_mtmd_support_vision",
            "_ggml_backend_graph_compute",
            "__ZN11llama_vocabD2Ev",
            "_ggml_sum",
            "_ggml_compute_forward_map_custom2",
            "__Z14parse_cpu_maskRKNSt3__112basic_stringIcNS_11char_traitsIcEENS_9allocatorIcEEEERA512_b",
            "__ZN35llama_kv_cache_unified_iswa_contextC1E19llama_memory_status",
            "_llama_free_model",
            "__ZNK11llama_vocab12token_middleEv",
            "__ZNK17llm_graph_context10build_attnEP29llm_graph_input_attn_no_cacheP11ggml_cgraphP11ggml_tensorS5_S5_S5_S5_S5_S5_fi",
            "__ZNK27llama_memory_hybrid_context8get_recrEv",
            "__ZN30llama_kv_cache_unified_contextC2EP22llama_kv_cache_unifiedP13llama_contextbNS0_11defrag_infoE",
            "__ZNK11llama_model9n_devicesEv",
            "_ggml_rope_custom",
            "__ZN13llama_context10get_logitsEv",
            "_gguf_find_tensor",
            "_ggml_type_sizef",
            "_ggml_sigmoid",
            "_ggml_exp_inplace",
            "__Z14gguf_type_size9gguf_type",
            "__ZNK11llama_model13create_memoryERK19llama_memory_paramsR13llama_cparams",
            "_llama_token_get_attr",
            "_ggml_cpu_has_sse3",
            "__Z16common_batch_addR11llama_batchiiRKNSt3__16vectorIiNS1_9allocatorIiEEEEb",
            "_llama_sampler_init_mirostat_v2",
            "__ZN22common_chat_msg_parser19try_consume_literalERKNSt3__112basic_stringIcNS0_11char_traitsIcEENS0_9allocatorIcEEEE",
            "__Z21clip_image_preprocessP8clip_ctxPK13clip_image_u8P20clip_image_f32_batch",
            "_ggml_gallocr_get_buffer_size",
            "_quantize_iq4_xs",
            "_ggml_compute_forward_dup",
            "__Z24string_find_partial_stopRKNSt3__117basic_string_viewIcNS_11char_traitsIcEEEES5_",
            "__ZN27llama_kv_cache_unified_iswa7seq_addEiiii",
            "_llama_n_layer",
            "_ggml_fp32_to_bf16_row",
            "_quantize_row_q8_K_generic",
            "_ggml_new_f32",
            "__ZN17llama_model_saverC2ERK11llama_model",
            "_ggml_is_permuted",
            "__ZNK11llama_vocab17get_tokenizer_preEv",
            "_ggml_conv_2d",
            "_llama_add_bos_token",
            "_ggml_gelu_erf_inplace",
            "_ggml_vec_dot_iq3_s_q8_K",
            "_quantize_row_iq2_s_ref",
            "_ggml_view_2d",
            "_quantize_row_q8_1",
            "_llama_memory_seq_pos_max",
            "_ggml_backend_buft_get_alloc_size",
            "__ZNK30llama_memory_recurrent_context8get_n_rsEv",
            "__Z34common_sampler_sample_and_accept_nP14common_samplerP13llama_contextRKNSt3__16vectorIiNS3_9allocatorIiEEEES9_b",
            "__ZNK13llama_hparams9n_head_kvEj",
            "_gguf_get_val_str",
            "__ZN11llama_model10load_statsER18llama_model_loader",
            "__ZNK22llama_kv_cache_unified16build_rope_shiftERK13llama_cparamsP12ggml_contextP11ggml_tensorS6_S6_ff",
            "_llama_supports_gpu_offload",
            "_ggml_vec_dot_q5_K_q8_K",
            "_ggml_rope_multi_back",
            "__ZNK27llama_memory_hybrid_context8get_attnEv",
            "__ZN13llama_context11synchronizeEv",
            "__Z21common_embd_normalizePKfPfii",
            "__Z11string_fromPK13llama_contextRK11llama_batch",
            "_llama_sampler_init_infill",
            "__Z24llama_grammar_accept_strR13llama_grammarRKNSt3__112basic_stringIcNS1_11char_traitsIcEENS1_9allocatorIcEEEE",
            "_ggml_pool_2d",
            "__Z20llm_arch_from_stringRKNSt3__112basic_stringIcNS_11char_traitsIcEENS_9allocatorIcEEEE",
            "__ZNK17llm_graph_context9build_ffnEP11ggml_tensorS1_S1_S1_S1_S1_S1_S1_S1_S1_S1_15llm_ffn_op_type17llm_ffn_gate_typei",
            "__ZNK11llama_vocab4impl8get_typeEv",
            "_ggml_compute_forward_get_rows_back",
            "__ZN11llama_vocabC2Ev",
            "_ggml_backend_buffer_init_tensor",
            "_ggml_fp32_to_bf16",
            "_ggml_mul_mat_id",
            "_ggml_cpu_init",
            "_ggml_is_contiguous",
            "_gguf_get_data_offset",
            "_llama_sampler_init_softmax",
            "_gguf_get_arr_str",
            "_ggml_init",
            "_quantize_row_q4_K_ref",
            "_llama_sampler_get_seed",
            "_ggml_vec_dot_iq3_xxs_q8_K_generic",
            "_ggml_compute_forward_conv_2d_dw",
            "__ZN28qvac_lib_inference_addon_cpp5AddonI10LlamaModelE12getNextPieceERNSt3__17variantIJNS3_12basic_stringIcNS3_11char_traitsIcEENS3_9allocatorIcEEEENS3_6vectorIhNS8_IhEEEEEEEm",
            "_ggml_backend_blas_set_n_threads",
            "_quantize_row_q8_0_ref",
            "__ZNK18llama_model_loader20done_getting_tensorsEv",
            "__ZNK30llama_kv_cache_unified_context20set_input_pos_bucketEP11ggml_tensorPK12llama_ubatch",
            "_ggml_acc",
            "_ggml_gemm_q4_K_8x8_q8_K",
            "_ggml_backend_is_blas",
            "__ZNK13llama_context9n_threadsEv",
            "__ZN13llama_contextC1ERK11llama_model20llama_context_params",
            "__ZNK18llama_model_loader17get_mapping_rangeEPmS0_PPviP12ggml_context",
            "_quantize_row_tq2_0_ref",
            "_llama_vocab_fim_pre",
            "_gguf_find_key",
            "_llama_model_load_from_splits",
            "__ZNK17llm_graph_context17build_inp_out_idsEv",
            "_ggml_neg_inplace",
            "_ggml_hash_set_new",
            "_quantize_row_iq3_xxs_ref",
            "_ggml_cross_entropy_loss",
            "__ZN11llama_model12load_hparamsER18llama_model_loader",
            "__ZN19llama_memory_hybrid11init_updateEP13llama_contextb",
            "__Z15common_log_initv",
            "__ZNK17llm_graph_context2cbEP11ggml_tensorPKci",
            "_ggml_is_matrix",
            "__Z15common_tokenizePK11llama_vocabRKNSt3__112basic_stringIcNS2_11char_traitsIcEENS2_9allocatorIcEEEEbb",
            "_llama_model_free",
            "__ZN11llama_model12load_tensorsER18llama_model_loader",
            "__Z21common_log_set_colorsP10common_logb",
            "_ggml_map_custom2_inplace",
            "_ggml_backend_sched_alloc_graph",
            "_llama_load_model_from_file",
            "__ZN22llama_kv_cache_unified8seq_keepEi",
            "__ZNK19llama_memory_hybrid12get_mem_recrEv",
            "__ZNK35llama_kv_cache_unified_iswa_context10get_ubatchEv",
            "_ggml_cont_1d",
            "__ZN4ggml3cpu13tensor_traitsD2Ev",
            "__ZN19llama_memory_hybrid6seq_cpEiiii",
            "_ggml_compute_forward_repeat",
            "__ZN30qvac_lib_inference_addon_llama6appendEP8js_env_sP18js_callback_info_s",
            "__ZNK30llama_kv_cache_unified_context17set_input_k_shiftEP11ggml_tensor",
            "_mtmd_helper_get_n_tokens",
            "__ZNK13llama_hparams12is_recurrentEj",
            "_ggml_is_contiguous_2",
            "__ZN27llama_memory_hybrid_contextC1EP19llama_memory_hybrid",
            "_ggml_compute_forward_rwkv_wkv7",
            "_ggml_backend_tensor_copy_async",
            "__ZN4ggml3cpu6repack6repackI12block_iq4_nlLx4ELx4EEEiP11ggml_tensorPKvm",
            "_llama_synchronize",
            "__ZN22common_chat_msg_parser11add_contentERKNSt3__112basic_stringIcNS0_11char_traitsIcEENS0_9allocatorIcEEEE",
            "_ggml_set_f32_1d",
            "_ggml_backend_alloc_buffer",
            "_ggml_add",
            "_gguf_type_name",
            "_ggml_mean",
            "_stbi_loadf",
            "_llama_encode",
            "__ZN13llama_context14set_embeddingsEb",
            "__ZNK11llama_vocab4impl10is_controlEi",
            "_llama_sampler_init_grammar_lazy",
            "_ggml_tensor_overhead",
            "__Z26cpu_get_num_physical_coresv",
            "_ggml_opt_dataset_data",
            "__Z11string_fromb",
            "_dequantize_row_iq2_xxs",
            "_ggml_cpu_has_avx512_vnni",
            "_ggml_set_f32_nd",
            "__ZNK30llama_kv_cache_unified_context5cpy_kEP12ggml_contextP11ggml_tensori",
            "_ggml_build_forward_expand",
            "__ZN22common_chat_msg_parser21add_reasoning_contentERKNSt3__112basic_stringIcNS0_11char_traitsIcEENS0_9allocatorIcEEEE",
            "_llama_model_chat_template",
            "_ggml_backend_cpu_set_n_threads",
            "__Z28common_reasoning_format_name23common_reasoning_format",
            "__ZN10llama_fileC1EPKcS1_",
            "__Z16clip_is_minicpmvPK8clip_ctx",
            "_llama_get_model",
            "_ggml_backend_load_all_from_path",
            "_ggml_top_k",
            "__ZN22llama_memory_recurrent15state_read_dataER15llama_io_read_ij",
            "_llama_state_seq_save_file",
            "__ZNK30llama_kv_cache_unified_context10get_statusEv",
            "_ggml_is_transposed",
            "_ggml_backend_metal_buffer_from_ptr",
            "_ggml_graph_add_node",
            "_ggml_set_input",
            "_llama_attach_threadpool",
            "__ZNK17llm_graph_context20build_inp_mem_hybridEv",
            "__ZNK11llama_vocab10is_controlEi",
            "__ZNK10llama_file7file_idEv",
            "_ggml_rms_norm_back",
            "_quantize_row_q3_K",
            "_ggml_cast",
            "__ZNK30llama_memory_recurrent_context6s_copyEi",
            "_stbi_info_from_memory",
            "__ZN30llama_memory_recurrent_contextC1EP22llama_memory_recurrent",
            "__ZNK11llama_vocab24get_precompiled_charsmapEv",
            "_llama_kv_self_used_cells",
            "_ggml_vec_dot_q2_K_q8_K",
            "__ZNK13llama_context11get_cparamsEv",
            "_llama_batch_get_one",
            "_gguf_get_val_u8",
            "_llama_vocab_fim_pad",
            "_ggml_backend_buffer_init",
            "_stbi_set_flip_vertically_on_load",
            "_quantize_row_q4_1",
            "_llama_sampler_init_grammar_lazy_patterns",
            "__ZNK13llama_context9get_modelEv",
            "__Z26common_chat_format_examplePK21common_chat_templatesb",
            "_llama_memory_clear",
            "_ggml_win_unpart",
            "__Z11string_fromPK13llama_contextRKNSt3__16vectorIiNS2_9allocatorIiEEEE",
            "_llama_get_embeddings_ith",
            "__ZNK11llama_vocab28get_remove_extra_whitespacesEv",
            "_ggml_graph_clear",
            "_ggml_opt_dataset_get_batch_host",
            "_llama_model_rope_type",
            "__Z32common_chat_msgs_parse_oaicompatIN8nlohmann16json_abi_v3_12_010basic_jsonINS1_11ordered_mapENSt3__16vectorENS4_12basic_stringIcNS4_11char_traitsIcEENS4_9allocatorIcEEEEbxydS9_NS1_14adl_serializerENS5_IhNS9_IhEEEEvEEENS5_I15common_chat_msgNS9_ISG_EEEERKT_",
            "_ggml_sqrt_inplace",
            "_ggml_step",
            "__Z17common_detokenizePK13llama_contextRKNSt3__16vectorIiNS2_9allocatorIiEEEEb",
            "__ZNK11llama_vocab9token_eotEv",
            "_ggml_conv_2d_sk_p0",
            "_ggml_is_scalar",
            "_gguf_set_val_u8",
            "__ZNK22llama_memory_recurrent10total_sizeEv",
            "_ggml_nbytes_pad",
            "_ggml_backend_get_max_size",
            "_ggml_soft_max_ext",
            "__ZNK11llama_vocab4impl15is_user_definedEi",
            "_ggml_flash_attn_back",
            "_quantize_q4_1",
            "_stbi_convert_iphone_png_to_rgb_thread",
            "_llama_sampler_init_penalties",
            "__ZN17llama_model_saver6add_kvE6llm_kvi",
            "_iq3xs_free_impl",
            "__ZN11llama_mlock4initEPv",
            "__ZN22llama_kv_cache_unified10state_readER15llama_io_read_ii",
            "_gguf_get_val_i32",
            "_ggml_soft_max_ext_back_inplace",
            "_stbi_hdr_to_ldr_gamma",
            "__ZN13llama_hparams15set_swa_patternEj",
            "__Z24llama_grammar_get_stacksP13llama_grammar",
            "__ZN20whisper_preprocessor16preprocess_audioEPKfmRKNS_15whisper_filtersERNSt3__16vectorINS_11whisper_melENS5_9allocatorIS7_EEEE",
            "__Z17gguf_write_to_bufPK12gguf_contextRNSt3__16vectorIaNS2_9allocatorIaEEEEb",
            "__ZN19llama_memory_hybrid6seq_rmEiii",
            "_llama_token_cls",
            "__ZN22common_chat_msg_parser17try_consume_regexERK12common_regex",
            "_ggml_compute_forward_group_norm",
            "__ZN36llm_graph_input_attn_kv_unified_iswa9set_inputEPK12llama_ubatch",
            "_mtmd_input_chunks_size",
            "__ZN17llama_model_saver6add_kvE6llm_kvf",
            "__Z18common_batch_clearR11llama_batch",
            "__ZNK22llama_kv_cache_unified11state_writeER16llama_io_write_ii",
            "_ggml_compute_forward_cont",
            "__ZN10LlamaModelC2ERKNSt3__112basic_stringIcNS0_11char_traitsIcEENS0_9allocatorIcEEEES8_RNS0_13unordered_mapIS6_S6_NS0_4hashIS6_EENS0_8equal_toIS6_EENS4_INS0_4pairIS7_S6_EEEEEE",
            "_stbi_ldr_to_hdr_scale",
            "_llama_opt_init",
            "__ZNK22llama_memory_recurrent11state_writeER16llama_io_write_ii",
            "_llama_vocab_n_tokens",
            "__ZN29llm_graph_input_pos_bucket_kv9set_inputEPK12llama_ubatch",
            "_gguf_set_tensor_data",
            "_dequantize_row_q4_0",
            "_ggml_gallocr_new",
            "__ZN20llama_grammar_parser14parse_sequenceEPKcRKNSt3__112basic_stringIcNS2_11char_traitsIcEENS2_9allocatorIcEEEERNS2_6vectorI21llama_grammar_elementNS6_ISC_EEEEb",
            "__ZN27llama_memory_hybrid_contextC2E19llama_memory_status",
            "_ggml_tanh_inplace",
            "_ggml_vec_dot_q5_1_q8_1_generic",
            "_llama_token_fim_mid",
            "_ggml_compute_forward_div",
            "_llama_token_eos",
            "_ggml_backend_sched_synchronize",
            "_ggml_cpu_has_f16c",
            "__ZN9time_measC2ERxb",
            "_llama_vocab_nl",
            "_ggml_backend_buffer_get_usage",
            "__ZN30qvac_lib_inference_addon_llama14createInstanceEP8js_env_sP18js_callback_info_s",
            "__ZNK10llama_file4seekEmi",
            "__ZNK11llama_vocab20get_add_space_prefixEv",
            "__ZNK30llama_memory_recurrent_context7get_s_lEi",
            "_quantize_row_q8_0_generic",
            "_ggml_op_symbol",
            "_llama_get_memory",
            "_llama_vocab_pad",
            "_ggml_used_mem",
            "_ggml_diag",
            "__ZNK10llama_mmap4sizeEv",
            "_llama_sampler_init",
            "_dequantize_row_q6_K",
            "_llama_sampler_init_temp",
            "_ggml_fp16_to_fp32",
            "_ggml_compute_forward_ssm_scan",
            "_iq2xs_free_impl",
            "_dequantize_row_iq2_xs",
            "_ggml_backend_buft_get_device",
            "_llama_kv_self_seq_cp",
            "_stbi_ldr_to_hdr_gamma",
            "_ggml_bf16_to_fp32",
            "_ggml_add_inplace",
            "_quantize_row_q3_K_ref",
            "_ggml_log_callback_default",
            "_llama_kv_self_seq_div",
            "_llama_vocab_get_add_sep",
            "__ZNK11llama_vocab22get_escape_whitespacesEv",
            "_mtmd_bitmap_init_from_audio",
            "__ZN30llama_memory_recurrent_contextD0Ev",
            "_ggml_backend_buft_get_max_size",
            "_gguf_get_arr_n",
            "__Z21common_token_to_piecePK13llama_contextib",
            "_quantize_row_q8_1_ref",
            "__Z23clip_encode_float_imageP8clip_ctxiPfiiS1_",
            "_ggml_set_loss",
            "_ggml_aligned_free",
            "_gguf_set_val_f32",
            "_ggml_map_custom3",
            "_gguf_set_arr_data",
            "_ggml_clamp",
            "_ggml_nbytes",
            "_ggml_backend_load",
            "__ZN26llm_graph_input_attn_cross9set_inputEPK12llama_ubatch",
            "__Z23clip_get_projector_typePK8clip_ctx",
            "__Z23clip_image_batch_encodeP8clip_ctxiPK20clip_image_f32_batchPf",
            "_ggml_sum_rows",
            "__Z26common_sampler_type_to_chr19common_sampler_type",
            "__Z9clip_freeP8clip_ctx",
            "_ggml_backend_sched_get_n_copies",
            "_llama_token_bos",
            "_ggml_compute_forward_win_unpart",
            "_ggml_flash_attn_ext_set_prec",
            "_ggml_ssm_conv",
            "_ggml_compute_forward_count_equal",
            "_ggml_backend_supports_buft",
            "_ggml_compute_forward_hardsigmoid",
            "_ggml_compute_forward_pad",
            "__ZN22llama_memory_recurrentC2ERK11llama_modelONSt3__18functionIFbiEEE9ggml_typeS8_bjj",
            "__Z41llama_grammar_reject_candidates_for_stackRKNSt3__16vectorINS0_I21llama_grammar_elementNS_9allocatorIS1_EEEENS2_IS4_EEEERKNS0_IPKS1_NS2_ISA_EEEERKNS0_I23llama_grammar_candidateNS2_ISF_EEEE",
            "__ZNK11llama_vocab14get_bpe_mergesEv",
            "_ggml_set",
            "__ZN13llama_context18set_abort_callbackEPFbPvES0_",
            "_ggml_graph_node",
            "_stbi_zlib_decode_noheader_malloc",
            "__Z24llama_grammar_clone_implRK13llama_grammar",
            "_ggml_backend_get_alignment",
            "_ggml_backend_offload_op",
            "__ZN15llama_io_read_i11read_stringERNSt3__112basic_stringIcNS0_11char_traitsIcEENS0_9allocatorIcEEEE",
            "__ZNK17llm_graph_context20build_inp_attn_scaleEv",
            "_llama_sampler_sample",
            "__Z18clip_image_u8_initv",
            "_ggml_backend_tensor_alloc",
            "__ZN22llama_kv_cache_unifiedC2ERK11llama_modelONSt3__18functionIFbiEEE9ggml_typeS8_bbjjjj14llama_swa_type",
            "_ggml_vec_dot_q5_0_q8_0",
            "_llama_model_n_swa",
            "__Z20set_process_priority19ggml_sched_priority",
            "_ggml_log_set",
            "_ggml_new_tensor_3d",
            "_ggml_set_no_alloc",
            "_llama_model_meta_key_by_index",
            "_ggml_is_contiguously_allocated",
            "_llama_backend_free",
            "__ZN22common_chat_msg_parser14consume_spacesEv",
            "__ZN9time_measD1Ev",
            "__ZN4ggml3cpu6repack6repackI10block_q4_0Lx4ELx4EEEiP11ggml_tensorPKvm",
            "_ggml_compute_forward_ssm_conv",
            "__ZN13llama_contextC2ERK11llama_model20llama_context_params",
            "__ZNK18llama_model_loader10print_infoEv",
            "__ZN14MtmdLlmContextC2ER13common_params",
            "__ZNK19llama_memory_hybrid12get_mem_attnEv",
            "_ggml_compute_forward_add_non_quantized",
            "__ZN30qvac_lib_inference_addon_llama8activateEP8js_env_sP18js_callback_info_s",
            "_ggml_compute_forward_cpy",
            "__ZN22llama_memory_recurrent15state_read_metaER15llama_io_read_iji",
            "_ggml_type_name",
            "_ggml_compute_forward_diag_mask_inf",
            "_llama_token_get_text",
            "_ggml_opt_default_params",
            "_ggml_conv_2d_dw_direct",
            "__ZN19llama_memory_hybrid5clearEb",
            "__ZNK6LLM_KVclE6llm_kv",
            "__Z11string_fromRKNSt3__16vectorIiNS_9allocatorIiEEEE",
            "_ggml_get_mem_buffer",
            "_gguf_set_val_f64",
            "_gguf_set_val_i64",
            "_ggml_compute_forward_permute",
            "_ggml_sgn",
            "__Z23clip_image_f32_batch_nxPK20clip_image_f32_batchi",
            "__ZNK17llm_graph_context13build_lora_mmEP11ggml_tensorS1_",
            "_ggml_compute_forward_mul",
            "_mtmd_helper_decode_image_chunk",
            "__ZN28qvac_lib_inference_addon_cpp5AddonI10LlamaModelEC1IJP8js_env_sNSt3__117reference_wrapperIKNS6_12basic_stringIcNS6_11char_traitsIcEENS6_9allocatorIcEEEEEENS7_INS6_13unordered_mapISD_SD_NS6_4hashISD_EENS6_8equal_toISD_EENSB_INS6_4pairISE_SD_EEEEEEEEP10js_value_sSR_SR_EEEDpT_",
            "_ggml_backend_graph_plan_free",
            "__Z25llama_grammar_accept_implR13llama_grammari",
            "__ZN4ggml3cpu17extra_buffer_typeD2Ev",
            "__ZNK30llama_kv_cache_unified_context17set_input_kq_maskEP11ggml_tensorPK12llama_ubatchb",
            "__ZNK11llama_vocab13token_fim_midEv",
            "_ggml_cos",
            "__Z19common_sampler_initPK11llama_modelRK22common_params_sampling",
            "__ZN13llama_context18apply_adapter_cvecEPKfmiii",
            "_ggml_sub",
            "_ggml_graph_reset",
            "_llama_sampler_init_min_p",
            "_ggml_vec_dot_q5_0_q8_0_generic",
            "_ggml_argsort",
            "_llama_state_get_data",
            "_ggml_compute_forward_map_custom1",
            "__ZN13llama_context18state_seq_get_dataEiPhm",
            "__ZN20llama_grammar_parser16parse_alternatesEPKcRKNSt3__112basic_stringIcNS2_11char_traitsIcEENS2_9allocatorIcEEEEjb",
            "__ZN35llama_kv_cache_unified_iswa_context4nextEv",
            "__ZN17llama_model_saverC1ERK11llama_model",
            "_llama_vocab_cls",
            "__ZNK11llama_vocab4impl14token_to_pieceEiPciib",
            "__Z15common_log_mainv",
            "_mtmd_image_tokens_get_n_pos",
            "__Z33common_chat_tools_parse_oaicompatIN8nlohmann16json_abi_v3_12_010basic_jsonINS1_11ordered_mapENSt3__16vectorENS4_12basic_stringIcNS4_11char_traitsIcEENS4_9allocatorIcEEEEbxydS9_NS1_14adl_serializerENS5_IhNS9_IhEEEEvEEENS5_I16common_chat_toolNS9_ISG_EEEERKT_",
            "__ZN13llama_context18get_embeddings_seqEi",
            "__ZN4ggml3cpu6repack4gemvI10block_q4_0Lx4ELx4EL9ggml_type8EEEviPfmPKvS7_ii",
            "_dequantize_row_iq4_nl",
            "_mtmd_bitmap_get_nx",
            "_ggml_gemv_q4_0_4x8_q8_0_generic",
            "__ZN19llm_graph_input_cls9set_inputEPK12llama_ubatch",
            "_ggml_cpu_has_amx_int8",
            "__Z22clip_n_output_tokens_xPK8clip_ctxP14clip_image_f32",
            "_ggml_add_rel_pos_inplace",
            "_ggml_relu",
            "__ZNK11llama_vocab4impl24token_to_piece_for_cacheEib",
            "_ggml_compute_forward_soft_max_ext_back",
            "__Z26unicode_cpts_normalize_nfdRKNSt3__16vectorIjNS_9allocatorIjEEEE",
            "_ggml_compute_forward_transpose",
            "_ggml_backend_dev_by_name",
            "__ZNK22llama_kv_cache_unified13get_can_shiftEv",
            "__Z27llama_memory_status_combine19llama_memory_statusS_",
            "__Z19unicode_regex_splitRKNSt3__112basic_stringIcNS_11char_traitsIcEENS_9allocatorIcEEEERKNS_6vectorIS5_NS3_IS5_EEEE",
            "_ggml_gelu_quick",
            "_ggml_backend_sched_graph_compute",
            "_ggml_opt_dataset_init",
            "_quantize_row_q8_1_generic",
            "_ggml_compute_forward_add_rel_pos",
            "_llama_model_n_layer",
            "_ggml_quantize_init",
            "_llama_tokenize",
            "__ZNK11llama_vocab8n_tokensEv",
            "_ggml_pad_reflect_1d",
            "_llama_split_path",
            "_ggml_gallocr_reserve_n",
            "__ZNK10llama_file8read_u32Ev",
            "__Z26common_sampler_type_to_str19common_sampler_type",
            "_gguf_get_meta_size",
            "_gguf_get_tensor_size",
            "_llama_token_pad",
            "_ggml_log_internal",
            "__ZN27llama_kv_cache_unified_iswa5clearEb",
            "_ggml_get_type_traits_cpu",
            "_mtmd_input_chunks_init",
            "_ggml_abs",
            "__ZNK17llm_graph_context12build_rs_inpEv",
            "_ggml_cpu_bf16_to_fp32",
            "__Z25common_remote_get_contentRKNSt3__112basic_stringIcNS_11char_traitsIcEENS_9allocatorIcEEEERK20common_remote_params",
            "_ggml_hash_size",
            "_ggml_conv_transpose_2d_p0",
            "_ggml_threadpool_new",
            "_ggml_cpu_fp32_to_bf16",
            "__ZN4ggml3cpu6repack4gemvI10block_q4_KLx8ELx8EL9ggml_type15EEEviPfmPKvS7_ii",
            "_ggml_new_buffer",
            "__Z20unicode_byte_to_utf8h",
            "__ZNK11llama_model20has_tensor_overridesEv",
            "_dequantize_row_iq2_s",
            "_llama_token_fim_sep",
            "__ZNK30llama_kv_cache_unified_context10get_ubatchEv",
            "_ggml_set_f32",
            "_ggml_backend_buffer_reset",
            "__ZN14MtmdLlmContext8setNPastEi",
            "__Z18llama_log_internal14ggml_log_levelPKcz",
            "_llama_perf_sampler",
            "__ZNK10llama_mmap4addrEv",
            "_gguf_remove_key",
            "__ZN22llama_kv_cache_unified9init_fullEv",
            "_ggml_build_backward_expand",
            "__ZN13llama_context15state_save_fileEPKcPKim",
            "_ggml_are_same_stride",
            "_ggml_backend_event_new",
            "_ggml_cpu_has_vsx",
            "__ZNK13llama_hparams10is_swa_anyEv",
            "__ZN18llama_adapter_cvec5applyERK11llama_modelPKfmiii",
            "__ZN22llama_kv_cache_unified12apply_ubatchEjRK12llama_ubatch",
            "_gguf_free",
            "_gguf_get_n_kv",
            "__ZN13llama_context20kv_self_defrag_schedEv",
            "_ggml_reshape_2d",
            "_ggml_compute_forward_soft_max",
            "_llama_model_desc",
            "_ggml_vec_dot_q2_K_q8_K_generic",
            "__Z27common_chat_verify_templateRKNSt3__112basic_stringIcNS_11char_traitsIcEENS_9allocatorIcEEEEb",
            "_ggml_vec_dot_tq2_0_q8_K",
            "__ZNK17llm_graph_context10build_attnEP26llm_graph_input_attn_crossP11ggml_cgraphP11ggml_tensorS5_S5_S5_S5_S5_S5_fi",
            "__ZN17llama_model_saver6add_kvE6llm_kvj",
            "__ZN19llama_memory_hybrid10state_readER15llama_io_read_ii",
            "_ggml_gemv_q4_0_4x8_q8_0",
            "_ggml_graph_nodes",
            "__ZN19llama_memory_hybrid7seq_divEiiii",
            "_ggml_ftype_to_ggml_type",
            "__ZNK11llama_vocab12token_suffixEv",
            "__Z19common_sampler_freeP14common_sampler",
            "_ggml_unary_inplace",
            "_ggml_vec_dot_iq2_xxs_q8_K_generic",
            "__ZN14TextLlmContext6getCtxEv",
            "_gguf_set_val_u16",
            "__ZNK13llama_context5n_ctxEv",
            "_ggml_rope_custom_inplace",
            "__ZN18llama_adapter_cvec4initERK11llama_model",
            "_ggml_compute_forward_relu",
            "__Z22json_schema_to_grammarRKN8nlohmann16json_abi_v3_12_010basic_jsonINS0_11ordered_mapENSt3__16vectorENS3_12basic_stringIcNS3_11char_traitsIcEENS3_9allocatorIcEEEEbxydS8_NS0_14adl_serializerENS4_IhNS8_IhEEEEvEEb",
            "_llama_model_n_params",
            "_ggml_gemm_q4_0_8x8_q8_0_generic",
            "_gguf_init_from_file",
            "__ZNK22llama_kv_cache_unified16state_write_metaER16llama_io_write_iRKNSt3__16vectorINS2_4pairIjjEENS2_9allocatorIS5_EEEEi",
            "_ggml_count_equal",
            "_mtmd_input_chunk_copy",
            "__ZNK17llm_graph_context14build_inp_embdEP11ggml_tensor",
            "_ggml_element_size",
            "_llama_vocab_type",
            "_ggml_set_2d",
            "_ggml_opt_result_free",
            "_ggml_critical_section_end",
            "_mtmd_default_marker",
            "__Z12string_splitRKNSt3__112basic_stringIcNS_11char_traitsIcEENS_9allocatorIcEEEES7_",
            "_ggml_backend_supports_op",
            "__ZN10common_arg9to_stringEv",
            "__ZN22llama_memory_recurrentC1ERK11llama_modelONSt3__18functionIFbiEEE9ggml_typeS8_bjj",
            "__ZN18llama_batch_allocr11get_out_idsEv",
            "_ggml_cont_3d",
            "_mtmd_image_tokens_get_n_tokens",
            "__ZN17llama_model_saver22add_tensors_from_modelEv",
            "_ggml_gemv_q4_0_8x8_q8_0_generic",
            "__ZN13llama_context14process_ubatchERK12llama_ubatch14llm_graph_typeP22llama_memory_context_iR11ggml_status",
            "__ZNK11llama_vocab4impl14token_get_attrEi",
            "_ggml_norm",
            "_ggml_get_i32_1d",
            "__ZNK22llama_memory_recurrent12size_s_bytesEv",
            "_llama_set_state_data",
            "_llama_n_ubatch",
            "__Z30common_log_set_verbosity_tholdi",
            "__Z11clip_is_glmPK8clip_ctx",
            "_ggml_compute_forward_get_rows",
            "_ggml_opt_loss",
            "_stbi_info_from_callbacks",
            "__Z23llama_grammar_free_implP13llama_grammar",
            "__ZN10LlamaModel9LoadCacheEv",
            "_stbi_is_16_bit_from_file",
            "__ZN10LlamaModel12runtimeStatsEv",
            "__ZNK11llama_vocab8get_typeEv",
            "_ggml_elu_inplace",
            "_stbi_loadf_from_file",
            "__ZNK11llama_vocab8tokenizeERKNSt3__112basic_stringIcNS0_11char_traitsIcEENS0_9allocatorIcEEEEbb",
            "_mtmd_helper_get_n_pos",
            "__ZN30qvac_lib_inference_addon_llama5pauseEP8js_env_sP18js_callback_info_s",
            "_ggml_set_param",
            "_quantize_q5_K",
            "_llama_opt_epoch",
            "__ZN22llama_memory_recurrent8seq_keepEi",
            "__Z23clip_embd_nbytes_by_imgPK8clip_ctxii",
            "__ZNK27llama_memory_hybrid_context10get_statusEv",
            "__Z9clip_initPKc19clip_context_params",
            "_ggml_sqrt",
            "_ggml_cpu_has_avx2",
            "__Z19clip_get_patch_sizePK8clip_ctx",
            "_ggml_opt_init",
            "__ZN11llama_model9load_archER18llama_model_loader",
            "__ZN20llm_graph_input_embd9set_inputEPK12llama_ubatch",
            "_ggml_argmax",
            "_ggml_gemm_iq4_nl_4x4_q8_0_generic",
            "_llama_get_logits",
            "_ggml_backend_buft_alloc_buffer",
            "_ggml_is_quantized",
            "_llama_set_adapter_lora",
            "_ggml_graph_cpy",
            "_llama_set_warmup",
            "_ggml_soft_max_inplace",
            "__ZNK13llama_context15n_threads_batchEv",
            "_ggml_compute_forward_im2col",
            "__Z23common_sampler_prev_strP14common_samplerP13llama_contexti",
            "_ggml_diag_mask_inf_inplace",
            "__Z20common_sampler_printPK14common_sampler",
            "__ZN22common_chat_msg_parser33try_consume_json_with_dumped_argsERKNSt3__16vectorINS1_INS0_12basic_stringIcNS0_11char_traitsIcEENS0_9allocatorIcEEEENS5_IS7_EEEENS5_IS9_EEEESD_",
            "__ZN27llama_kv_cache_unified_iswa10state_readER15llama_io_read_ii",
            "__ZNK17llm_graph_context20build_inp_cross_embdEv",
            "_ggml_reshape_1d",
            "_ggml_compute_forward_pool_2d_back",
            "_ggml_opt_result_reset",
            "_llama_vocab_get_score",
            "_llama_sampler_init_top_k",
            "_ggml_scale",
            "_llama_state_get_size",
            "__ZNK11llama_model11select_buftEi",
            "_ggml_opt_prepare_alloc",
            "__ZNK13llama_context13perf_get_dataEv",
            "__ZN25llm_graph_input_attn_temp9set_inputEPK12llama_ubatch",
            "__ZNK22llama_memory_recurrent16state_write_metaER16llama_io_write_iRKNSt3__16vectorINS2_4pairIjjEENS2_9allocatorIS5_EEEEi",
            "__ZNK11llama_vocab16get_clean_spacesEv",
            "_ggml_pool_1d",
            "__ZN27llama_kv_cache_unified_iswa7seq_divEiiii",
            "_dequantize_row_q4_1",
            "_gguf_init_empty",
            "_ggml_bf16_to_fp32_row",
            "_ggml_div_inplace",
            "_llama_batch_free",
            "_ggml_div",
            "__Z29common_params_get_system_infoRK13common_params",
            "_ggml_vec_dot_iq3_xxs_q8_K",
            "_ggml_view_4d",
            "_mtmd_support_audio",
            "__Z16common_log_pauseP10common_log",
            "_ggml_get_rel_pos",
            "_ggml_quantize_mat_q8_0_4x8_generic",
            "_llama_memory_seq_pos_min",
            "_quantize_tq2_0",
            "_llama_n_ctx",
            "_ggml_vec_dot_tq1_0_q8_K",
            "__ZN17llama_model_saver6add_kvE6llm_kvc",
            "__ZNK17llm_graph_context14build_attn_mhaEP11ggml_cgraphP11ggml_tensorS3_S3_S3_S3_S3_f",
            "_llama_sampler_chain_get",
            "__ZN18llama_model_loader13load_all_dataEP12ggml_contextRNSt3__113unordered_mapIjP19ggml_backend_bufferNS2_4hashIjEENS2_8equal_toIjEENS2_9allocatorINS2_4pairIKjS5_EEEEEEPNS2_6vectorINS2_10unique_ptrI11llama_mlockNS2_14default_deleteISJ_EEEENSA_ISM_EEEEPFbfPvESQ_",
            "__Z23llama_file_version_name10llama_fver",
            "_ggml_backend_metal_reg",
            "__ZNK11llama_vocab13token_fim_sufEv",
            "__ZN18llama_model_loaderC1ERKNSt3__112basic_stringIcNS0_11char_traitsIcEENS0_9allocatorIcEEEERNS0_6vectorIS6_NS4_IS6_EEEEbbPK23llama_model_kv_overridePK32llama_model_tensor_buft_override",
            "__ZNK17llm_graph_context13build_inp_clsEv",
            "_ggml_quantize_mat_q8_0_4x8",
            "_ggml_guid_matches",
            "_ggml_compute_forward_rope_back",
            "_ggml_opt_dataset_ndata",
            "_stbi_load_gif_from_memory",
            "_ggml_quantize_mat_q8_0_4x4",
            "_gguf_get_arr_data",
            "_llama_model_has_decoder",
            "_ggml_backend_init_by_type",
            "_dequantize_row_q5_K",
            "__ZN10common_arg10is_excludeE13llama_example",
            "_ggml_backend_buft_is_host",
            "_ggml_backend_is_cpu",
            "_ggml_backend_event_record",
            "_ggml_permute",
            "__Z10common_lcpRKNSt3__16vectorIiNS_9allocatorIiEEEES5_",
            "__Z28common_chat_templates_sourcePK21common_chat_templatesPKc",
            "_ggml_conv_transpose_1d",
            "_stbi_info_from_file",
            "_ggml_set_name",
            "__ZNK11llama_model4descEv",
            "_ggml_compute_forward_sin",
            "__ZNK11llama_vocab9is_normalEi",
            "__Z34common_sampler_sample_and_accept_nP14common_samplerP13llama_contextRKNSt3__16vectorIiNS3_9allocatorIiEEEEb",
            "__Z11string_joinRKNSt3__16vectorINS_12basic_stringIcNS_11char_traitsIcEENS_9allocatorIcEEEENS4_IS6_EEEERKS6_",
            "_mtmd_bitmap_get_ny",
            "__ZNK13llama_context8n_ubatchEv",
            "__ZN23whisper_precalc_filters12get_128_binsEv",
            "_ggml_backend_dev_get",
            "_ggml_backend_multi_buffer_alloc_buffer",
            "_llama_set_causal_attn",
            "_llama_apply_adapter_cvec",
            "_ggml_backend_multi_buffer_set_usage",
            "__Z20clip_get_hidden_sizePK8clip_ctx",
            "_quantize_iq1_s",
            "_ggml_threadpool_pause",
            "_llama_kv_self_n_tokens",
            "_llama_n_threads_batch",
            "_ggml_compute_forward_hardswish",
            "_ggml_acc_inplace",
            "__ZN22llama_memory_recurrent6seq_rmEiii",
            "_llama_numa_init",
            "_quantize_row_q6_K_ref",
            "_ggml_compute_forward_conv_transpose_1d",
            "_ggml_gemm_q4_0_4x4_q8_0_generic",
            "__ZN11llama_mlockC1Ev",
            "_ggml_compute_forward_abs",
            "__ZN22llama_kv_cache_unified6seq_cpEiiii",
            "__ZN27llama_kv_cache_unified_iswaC1ERK11llama_model9ggml_typeS3_bbbjjjj",
            "_ggml_backend_graph_plan_create",
            "__ZN4ggml3cpu17extra_buffer_typeD0Ev",
            "_ggml_opt_dataset_free",
            "_ggml_get_unary_op",
            "__ZN28qvac_lib_inference_addon_cpp11JsInterfaceINS_5AddonI10LlamaModelEEE6appendEP8js_env_sP18js_callback_info_s",
            "_ggml_opt_outputs",
            "_llama_model_load_from_file",
            "_ggml_set_1d",
            "_gguf_set_val_u32",
            "__Z19llm_tensor_info_for10llm_tensor",
            "__ZNK17llm_graph_context25build_attn_inp_kv_unifiedEv",
            "_llama_supports_mmap",
            "__ZNK11llama_vocab9token_bosEv",
            "__ZN10llama_fileD1Ev",
            "_iq3xs_init_impl",
            "_llama_backend_init",
            "_llama_sampler_init_top_n_sigma",
            "__ZNK11llama_vocab14get_token_dataEi",
            "_ggml_graph_print",
            "_ggml_sgn_inplace",
            "__ZN28qvac_lib_inference_addon_cpp5AddonI10LlamaModelEC2IJP8js_env_sNSt3__117reference_wrapperIKNS6_12basic_stringIcNS6_11char_traitsIcEENS6_9allocatorIcEEEEEESF_NS7_INS6_13unordered_mapISD_SD_NS6_4hashISD_EENS6_8equal_toISD_EENSB_INS6_4pairISE_SD_EEEEEEEEP10js_value_sSR_SR_EEEDpT_",
            "__ZNK22llama_kv_cache_unified12size_v_bytesEv",
            "__ZN35llama_kv_cache_unified_iswa_contextC1EP27llama_kv_cache_unified_iswa",
            "_ggml_vec_dot_q3_K_q8_K",
            "_ggml_compute_forward_step",
            "__ZN13llama_context15set_causal_attnEb",
            "_ggml_compute_forward_cos",
            "_gguf_get_n_tensors",
            "_quantize_iq1_m",
            "__ZN27llama_kv_cache_unified_iswaC2ERK11llama_model9ggml_typeS3_bbbjjjj",
            "__Z31regex_to_reversed_partial_regexRKNSt3__112basic_stringIcNS_11char_traitsIcEENS_9allocatorIcEEEE",
            "__ZN14MtmdLlmContextC1ER13common_params",
            "_ggml_quantize_mat_q8_K_4x8",
            "_dequantize_row_tq1_0",
            "__Z30llama_sampler_init_dry_testingiffiiRKNSt3__16vectorINS0_IiNS_9allocatorIiEEEENS1_IS3_EEEE",
            "_llama_chat_builtin_templates",
            "_stbi_info",
            "__ZN14MtmdLlmContext9loadMediaERKNSt3__16vectorIhNS0_9allocatorIhEEEE",
            "_ggml_compute_forward_pool_1d",
            "_ggml_rope_multi",
            "_mtmd_init_from_file",
            "__ZN30llama_kv_cache_unified_contextC1E19llama_memory_status",
            "_ggml_opt_free",
            "__ZN19llm_graph_input_pos9set_inputEPK12llama_ubatch",
            "_llama_state_set_data",
            "_ggml_cpu_has_matmul_int8",
            "_quantize_row_iq4_xs_ref",
            "_llama_token_fim_pre",
            "_ggml_barrier",
            "__Z19ggml_quantize_mat_tILx8EL9ggml_type8EEvPKfPvxx",
            "__Z39common_chat_tool_choice_parse_oaicompatRKNSt3__112basic_stringIcNS_11char_traitsIcEENS_9allocatorIcEEEE",
            "__ZN30llama_kv_cache_unified_contextC1EP22llama_kv_cache_unifiedNSt3__16vectorIjNS2_9allocatorIjEEEENS3_I12llama_ubatchNS4_IS7_EEEE",
            "__ZN14TextLlmContext16generateResponseENSt3__18functionIFvRKNS0_12basic_stringIcNS0_11char_traitsIcEENS0_9allocatorIcEEEEEEE",
            "_ggml_backend_sched_set_eval_callback",
            "_ggml_threadpool_free",
            "_mtmd_image_tokens_get_ny",
            "_ggml_backend_tensor_copy",
            "_quantize_row_q5_0",
            "__Z17common_chat_parseRKNSt3__112basic_stringIcNS_11char_traitsIcEENS_9allocatorIcEEEEbRK18common_chat_syntax",
            "__ZN13llama_context10set_warmupEb",
            "__ZNK30llama_memory_recurrent_context10get_statusEv",
            "__ZN27llama_kv_cache_unified_iswa10init_batchER18llama_batch_allocrjb",
            "_ggml_new_graph",
            "__Z12regex_escapeRKNSt3__112basic_stringIcNS_11char_traitsIcEENS_9allocatorIcEEEE",
            "_stbi_is_16_bit_from_callbacks",
            "_ggml_scale_inplace",
            "__ZNK22common_params_sampling5printEv",
            "__ZNK11llama_vocab11get_add_sepEv",
            "__ZN13llama_context8opt_initEP11llama_model16llama_opt_params",
            "_llama_free",
            "__ZNK18llama_batch_allocr12get_n_tokensEv",
            "_ggml_gemm_iq4_nl_4x4_q8_0",
            "_ggml_gelu_quick_inplace",
            "_ggml_dup_inplace",
            "__ZN35llama_kv_cache_unified_iswa_contextC2E19llama_memory_status",
            "__ZN30llama_kv_cache_unified_contextC2E19llama_memory_status",
            "_ggml_get_no_alloc",
            "_llama_kv_self_seq_rm",
            "__ZNK17llm_graph_context27build_rwkv_token_shift_loadEP18llm_graph_input_rsP11ggml_cgraphRK12llama_ubatchi",
            "_ggml_fp16_to_fp32_row",
            "_ggml_new_tensor_2d",
            "__ZNK19llama_memory_hybrid11seq_pos_minEi",
            "_llama_vocab_get_text",
            "_ggml_opt_result_init",
            "__ZN30llama_kv_cache_unified_contextC2EP22llama_kv_cache_unifiedNSt3__16vectorIjNS2_9allocatorIjEEEENS3_I12llama_ubatchNS4_IS7_EEEE",
            "_gguf_set_val_u64",
            "__ZN18llama_batch_allocr9split_seqEj",
            "_llama_memory_seq_add",
            "__Z17common_json_parseRKNSt3__112basic_stringIcNS_11char_traitsIcEENS_9allocatorIcEEEES7_R11common_json",
            "_ggml_compute_forward_diag",
            "__ZNK30llama_memory_recurrent_context7get_r_lEi",
            "__ZN22llama_memory_recurrent6seq_cpEiiii",
            "_llama_state_seq_get_size",
            "_ggml_vec_dot_bf16",
            "__ZNK11llama_vocab15is_user_definedEi",
            "_ggml_compute_forward_rms_norm_back",
            "_ggml_group_norm",
            "__ZN28qvac_lib_inference_addon_cpp5AddonI10LlamaModelE7processEv",
            "__Z26llama_log_callback_default14ggml_log_levelPKcPv",
            "_ggml_compute_forward_leaky_relu",
            "_ggml_compute_forward_argmax",
            "_ggml_soft_max_ext_back",
            "__ZNK22llama_kv_cache_unified17set_input_kq_maskEP11ggml_tensorPK12llama_ubatchb",
            "_ggml_backend_reg_count",
            "_stbi_image_free",
            "__ZN14MtmdLlmContext16generateResponseENSt3__18functionIFvRKNS0_12basic_stringIcNS0_11char_traitsIcEENS0_9allocatorIcEEEEEEE",
            "_llama_kv_self_seq_pos_max",
            "_ggml_opt_fit",
            "__ZNK11llama_vocab13token_fim_preEv",
            "_llama_token_fim_rep",
            "_llama_get_logits_ith",
            "__Z38qvac_lib_inference_addon_llama_exportsP8js_env_sP10js_value_s",
            "_ggml_is_3d",
            "__Z25common_params_parser_initR13common_params13llama_examplePFviPPcE",
            "__ZNK19llama_memory_hybrid13get_can_shiftEv",
            "_llama_n_batch",
            "_stbi_is_hdr_from_callbacks",
            "__ZN18llama_model_loader7get_keyI18llama_pooling_typeEEb6llm_kvRT_b",
            "__ZN22llama_memory_recurrent7prepareERKNSt3__16vectorI12llama_ubatchNS0_9allocatorIS2_EEEE",
            "_ggml_is_contiguous_channels",
            "_ggml_cpu_has_llamafile",
            "_mtmd_encode",
            "_gguf_get_val_i16",
            "_mtmd_decode_use_non_causal",
            "_gguf_get_key",
            "__ZN18llama_batch_allocrC2Ej",
            "__ZN20llama_grammar_parser13get_symbol_idEPKcm",
            "_ggml_neg",
            "_ggml_get_f32_nd",
            "__ZN35llama_kv_cache_unified_iswa_context5applyEv",
            "_gguf_set_val_i16",
            "__ZNK11llama_vocab13text_to_tokenERKNSt3__112basic_stringIcNS0_11char_traitsIcEENS0_9allocatorIcEEEE",
            "__ZN22common_chat_msg_parser11clear_toolsEv",
            "__ZN30llama_kv_cache_unified_context4nextEv",
            "_ggml_new_tensor_4d",
            "__Z17clip_image_encodeP8clip_ctxiP14clip_image_f32Pf",
            "_ggml_time_ms",
            "_mtmd_input_chunks_free",
            "__ZN10common_arg10in_exampleE13llama_example",
            "_ggml_cpu_extra_work_size",
            "__Z16clip_embd_nbytesPK8clip_ctx",
            "_ggml_backend_buffer_free",
            "__ZNK11llama_model10print_infoEv",
            "_dequantize_row_q3_K",
            "_llama_token_is_eog",
            "_quantize_row_iq4_nl",
            "_ggml_vec_dot_iq1_s_q8_K",
            "_ggml_compute_forward_neg",
            "__ZN17llama_model_saver6add_kvE6llm_kvRKNSt3__16vectorINS1_12basic_stringIcNS1_11char_traitsIcEENS1_9allocatorIcEEEENS6_IS8_EEEE",
            "__ZN27llama_memory_hybrid_contextC2EP19llama_memory_hybridNSt3__16vectorIjNS2_9allocatorIjEEEENS3_I12llama_ubatchNS4_IS7_EEEE",
            "_ggml_cpu_has_wasm_simd",
            "_stbi_is_hdr_from_memory",
            "_ggml_compute_forward_im2col_back_f32",
            "__ZNK17llm_graph_context13build_inp_posEv",
            "__ZNK17llm_graph_context13build_moe_ffnEP11ggml_tensorS1_S1_S1_S1_S1_xx15llm_ffn_op_typebbf29llama_expert_gating_func_typei",
            "_llama_vocab_is_control",
            "_ggml_backend_event_free",
            "__ZN13llama_contextD1Ev",
            "_ggml_rope_ext",
            "__ZN22llama_kv_cache_unified15state_read_dataER15llama_io_read_ij",
            "__ZN13llama_context14state_get_dataEPhm",
            "__ZN18llama_adapter_lora10get_weightEP11ggml_tensor",
            "__ZN35llama_kv_cache_unified_iswa_contextC2EP27llama_kv_cache_unified_iswa",
            "_ggml_cpu_has_neon",
            "_ggml_cpu_has_avx",
            "_dequantize_row_iq1_m",
            "__ZNK19llama_memory_hybrid11state_writeER16llama_io_write_ii",
            "__ZNK22llama_kv_cache_unified5cpy_vEP12ggml_contextP11ggml_tensorij",
            "_ggml_type_size",
            "_llama_n_seq_max",
            "_ggml_backend_reg_get",
            "_ggml_cpu_has_riscv_v",
            "_stbi_load_from_callbacks",
            "_ggml_backend_metal_supports_family",
            "__ZN23llm_graph_input_out_ids9set_inputEPK12llama_ubatch",
            "_stbi_is_hdr_from_file",
            "_ggml_op_desc",
            "__ZN18llm_graph_input_rs9set_inputEPK12llama_ubatch",
            "_llama_model_size",
            "__Z21common_log_set_prefixP10common_logb",
            "__ZN4ggml3cpu6repack4gemmI12block_iq4_nlLx4ELx4EL9ggml_type8EEEviPfmPKvS7_ii",
            "__ZN18llama_batch_allocr5clearEv",
            "__Z23llama_grammar_get_rulesPK13llama_grammar",
            "__ZN22llama_kv_cache_unified5clearEb",
            "__ZN27llama_memory_hybrid_contextC1E19llama_memory_status",
            "__ZNK13llama_hparams6n_headEj",
            "__ZN11llama_mlockD2Ev",
            "_ggml_backend_cpu_reg",
            "__ZN22llama_memory_recurrent11init_updateEP13llama_contextb",
            "__ZNK17llm_graph_context8build_rsEP11ggml_cgraphP11ggml_tensorS3_iijjjib",
            "__ZNK13llama_context15get_ctx_computeEv",
            "_stbi_set_flip_vertically_on_load_thread",
            "__Z26unicode_cpt_flags_from_cptj",
            "__ZN14MtmdLlmContext6getCtxEv",
            "__ZN22llama_kv_cache_unifiedC1ERK11llama_modelONSt3__18functionIFbiEEE9ggml_typeS8_bbjjjj14llama_swa_type",
            "_ggml_backend_cpu_buffer_type",
            "__ZNK11llama_vocab15token_get_scoreEi",
            "_ggml_opt_pred",
            "_ggml_compute_forward_sqr",
            "__ZN11llama_modelC1ERK18llama_model_params",
            "_ggml_mul",
            "_ggml_vec_dot_iq2_s_q8_K",
            "__ZN4ggml3cpu6repack4gemvI12block_iq4_nlLx4ELx4EL9ggml_type8EEEviPfmPKvS7_ii",
            "_ggml_new_tensor_1d",
            "_ggml_op_name",
            "_gguf_set_val_bool",
            "__Z18clip_image_u8_freeP13clip_image_u8",
            "__ZNK11llama_model19get_rope_freq_scaleERK13llama_cparamsi",
            "_dequantize_row_iq3_s",
            "__ZNK27llama_kv_cache_unified_iswa11state_writeER16llama_io_write_ii",
            "_ggml_add_cast",
            "__Z24clip_image_u8_batch_freeP19clip_image_u8_batch",
            "_ggml_backend_buffer_get_alignment",
            "__ZNK18llama_model_loader19require_tensor_metaERKNSt3__112basic_stringIcNS0_11char_traitsIcEENS0_9allocatorIcEEEE",
            "__ZN35llama_kv_cache_unified_iswa_contextD0Ev",
            "_ggml_sqr",
            "__ZN13llama_contextD2Ev",
            "_ggml_opt_result_accuracy",
            "_ggml_compute_forward_timestep_embedding",
            "__ZN13llama_context15rm_adapter_loraEP18llama_adapter_lora",
            "__ZN13llama_context19state_seq_save_fileEiPKcPKim",
            "__ZNK18llama_model_loader15get_tensor_metaEPKc",
            "_ggml_set_i32_nd",
            "__ZN20llm_graph_input_mean9set_inputEPK12llama_ubatch",
            "_ggml_backend_dev_by_type",
            "_ggml_gemv_q4_K_8x8_q8_K",
            "__Z15parse_cpu_rangeRKNSt3__112basic_stringIcNS_11char_traitsIcEENS_9allocatorIcEEEERA512_b",
            "__ZNK18llama_adapter_cvec10tensor_forEi",
            "_ggml_compute_forward_upscale",
            "__ZNK10llama_file4sizeEv",
            "__ZNK22llama_kv_cache_unified14defrag_prepareEi",
            "_ggml_conv_2d_s1_ph",
            "_ggml_get_first_tensor",
            "_ggml_backend_blas_reg",
            "_ggml_backend_unload",
            "_ggml_compute_forward_add",
            "_iq2xs_init_impl",
            "__ZN13llama_context18state_seq_get_sizeEi",
            "_ggml_concat",
            "_quantize_row_tq1_0_ref",
            "_quantize_row_tq2_0",
            "_llama_vocab_fim_sep",
            "_gguf_get_tensor_offset",
            "_mtmd_helper_eval_chunks",
            "__Z23llama_grammar_init_implPK11llama_vocabPPK21llama_grammar_elementmm",
            "__ZN10LlamaModelD1Ev",
            "__ZN11llama_modelC2ERK18llama_model_params",
            "__ZN10LlamaModel7processERKNSt3__17variantIJNS0_12basic_stringIcNS0_11char_traitsIcEENS0_9allocatorIcEEEENS0_6vectorIhNS5_IhEEEEEEENS0_8functionIFvRKS7_EEE",
            "__ZNK11llama_vocab4impl13token_to_byteEi",
            "__Z20fs_validate_filenameRKNSt3__112basic_stringIcNS_11char_traitsIcEENS_9allocatorIcEEEE",
            "_ggml_compute_forward_view",
            "_quantize_row_q8_K_ref",
            "_llama_detokenize",
            "__ZN35llama_kv_cache_unified_iswa_contextD1Ev",
            "__ZN4ggml3cpu6repack4gemmI10block_q4_0Lx8ELx4EL9ggml_type8EEEviPfmPKvS7_ii",
            "_ggml_opt_result_loss",
            "_ggml_repeat_back",
            "__Z20common_sampler_resetP14common_sampler",
            "_ggml_gelu",
            "__ZNK13llama_hparams8n_embd_rEv",
            "__Z19clip_get_image_sizePK8clip_ctx",
            "__ZNK27llama_memory_hybrid_context10get_ubatchEv",
            "_ggml_backend_dev_name",
            "_ggml_map_custom2",
            "_ggml_vec_dot_iq2_xxs_q8_K",
            "__Z14clip_is_gemma3PK8clip_ctx",
            "__ZN14MtmdLlmContext19init_vision_contextEv",
            "_ggml_backend_sched_new",
            "_ggml_backend_sched_reserve",
            "_ggml_rms_norm",
            "_ggml_compute_forward_map_custom3",
            "_ggml_hash_set_free",
            "_gguf_get_val_u64",
            "__ZN20llama_grammar_parser18generate_symbol_idERKNSt3__112basic_stringIcNS0_11char_traitsIcEENS0_9allocatorIcEEEE",
            "__ZN30llama_kv_cache_unified_contextD1Ev",
            "_mtmd_bitmap_init",
            "_llama_get_embeddings_seq",
            "__ZN13llama_context14opt_epoch_iterEP16ggml_opt_datasetP15ggml_opt_resultRKNSt3__16vectorIiNS4_9allocatorIiEEEESA_R11llama_batchPFvbP16ggml_opt_contextS1_S3_xxxEbxxx",
            "_ggml_soft_max",
            "_ggml_dup_tensor",
            "_ggml_cpu_has_avx_vnni",
            "__ZN22common_chat_msg_parserC1ERKNSt3__112basic_stringIcNS0_11char_traitsIcEENS0_9allocatorIcEEEEbRK18common_chat_syntax",
            "__ZNK13llama_hparams4n_ffEj",
            "__ZNK11llama_model18get_rope_freq_baseERK13llama_cparamsi",
            "_ggml_vec_dot_iq1_m_q8_K_generic",
            "__ZN10LlamaModel17CommonParamsParseERKNSt3__112basic_stringIcNS0_11char_traitsIcEENS0_9allocatorIcEEEERNS0_13unordered_mapIS6_S6_NS0_4hashIS6_EENS0_8equal_toIS6_EENS4_INS0_4pairIS7_S6_EEEEEER13common_params",
            "_llama_vocab_fim_rep",
            "_quantize_q8_0",
            "__Z25common_chat_format_singlePK21common_chat_templatesRKNSt3__16vectorI15common_chat_msgNS2_9allocatorIS4_EEEERKS4_bb",
            "__ZN10LlamaModel13CreateContextERKNSt3__112basic_stringIcNS0_11char_traitsIcEENS0_9allocatorIcEEEER13common_params",
            "_ggml_gemm_q4_0_8x8_q8_0",
            "_stbi_failure_reason",
            "_ggml_flash_attn_ext_get_prec",
            "_ggml_leaky_relu",
            "_ggml_vec_dot_q4_1_q8_1_generic",
            "_ggml_opt_static_graphs",
            "_ggml_backend_dev_buffer_type",
            "_ggml_backend_dev_memory",
            "_quantize_q3_K",
            "_quantize_row_q8_0",
            "_mtmd_input_chunk_get_id",
            "_ggml_quantize_free",
            "_ggml_cont_2d",
            "_ggml_compute_forward_rwkv_wkv6",
            "__Z17common_detokenizePK11llama_vocabRKNSt3__16vectorIiNS2_9allocatorIiEEEEb",
            "__ZN19llama_memory_hybridC2ERK11llama_model9ggml_typeS3_bjjj14llama_swa_typeS3_S3_jjbONSt3__18functionIFbiEEES9_",
            "__ZNK11llama_model9n_tensorsEv",
            "_ggml_threadpool_resume",
            "_ggml_custom_inplace",
            "__ZN22llama_kv_cache_unified6seq_rmEiii",
            "_dequantize_row_q2_K",
            "__ZN18llama_batch_allocr14ubatch_reserveEjj",
            "__ZNK11llama_vocab10is_unknownEi",
            "_ggml_get_rows_back",
            "__Z19unicode_cpt_to_utf8j",
            "_ggml_nelements",
            "__ZN27llama_kv_cache_unified_iswa6seq_rmEiii",
            "_mtmd_input_chunk_get_n_pos",
            "__ZN17llama_model_saver6add_kvE6llm_kvPKc",
            "_llama_supports_mlock",
            "__Z23common_chat_format_name18common_chat_format",
            "_ggml_opt_alloc",
            "__Z35common_chat_tools_to_json_oaicompatIN8nlohmann16json_abi_v3_12_010basic_jsonINS1_11ordered_mapENSt3__16vectorENS4_12basic_stringIcNS4_11char_traitsIcEENS4_9allocatorIcEEEEbxydS9_NS1_14adl_serializerENS5_IhNS9_IhEEEEvEEET_RKNS5_I16common_chat_toolNS9_ISH_EEEE",
            "__ZN27llama_kv_cache_unified_iswa6seq_cpEiiii",
            "__ZN26llm_graph_input_cross_embd9set_inputEPK12llama_ubatch",
            "_mtmd_input_chunk_get_n_tokens",
            "_ggml_graph_size",
            "_stbi_is_16_bit_from_memory",
            "__ZN22common_chat_msg_parser19try_parse_reasoningERKNSt3__112basic_stringIcNS0_11char_traitsIcEENS0_9allocatorIcEEEES8_",
            "__ZN27llama_memory_hybrid_context4nextEv",
            "__ZNK22llama_kv_cache_unified16state_write_dataER16llama_io_write_iRKNSt3__16vectorINS2_4pairIjjEENS2_9allocatorIS5_EEEE",
            "_ggml_get_f32_1d",
            "_ggml_get_type_traits",
            "__Z20llama_grammar_acceptP13llama_grammarj",
            "__ZN30llama_memory_recurrent_context4nextEv",
            "__ZN35llama_kv_cache_unified_iswa_contextC2EP27llama_kv_cache_unified_iswaP13llama_contextb",
            "_ggml_backend_sched_get_n_backends",
            "_ggml_silu_inplace",
            "_quantize_row_q2_K",
            "__Z14gguf_kv_to_strPK12gguf_contexti",
            "__Z19clip_image_f32_freeP14clip_image_f32",
            "__ZN22common_chat_msg_parser12consume_restEv",
            "_ggml_map_custom1",
            "__ZN13llama_context19state_seq_read_dataER15llama_io_read_ii",
            "__ZNK13llama_context10get_memoryEv",
            "_llama_memory_seq_keep",
            "__ZN11llama_vocabD1Ev",
            "__ZN30llama_memory_recurrent_contextC1EP22llama_memory_recurrentNSt3__16vectorI12llama_ubatchNS2_9allocatorIS4_EEEE",
            "__ZN29llm_graph_input_attn_no_cache9set_inputEPK12llama_ubatch",
            "_ggml_backend_event_synchronize",
            "__ZN17llama_model_saver17add_kv_from_modelEv",
            "_mtmd_input_chunk_get_type",
            "_quantize_tq1_0",
            "_gguf_get_val_bool",
            "__Z19common_log_set_fileP10common_logPKc",
            "_ggml_backend_graph_compute_async",
            "_ggml_norm_inplace",
            "__Z26llm_chat_template_from_strRKNSt3__112basic_stringIcNS_11char_traitsIcEENS_9allocatorIcEEEE",
            "_ggml_cross_entropy_loss_back",
            "_ggml_compute_forward_rope",
            "_ggml_vec_dot_q6_K_q8_K",
            "__ZNK11llama_model10get_tensorEPKc",
            "_llama_decode",
            "__ZNK17llm_graph_context28build_rwkv_token_shift_storeEP11ggml_tensorRK12llama_ubatchi",
            "_ggml_rope_inplace",
            "__ZN13llama_context15state_read_dataER15llama_io_read_i",
            "__ZN17llama_model_saverD2Ev",
            "__ZN14MtmdLlmContext10resetStateEv",
            "_ggml_rope_ext_inplace",
            "__Z16string_ends_withRKNSt3__117basic_string_viewIcNS_11char_traitsIcEEEES5_",
            "__ZN10llama_mmap14unmap_fragmentEmm",
            "__ZN30llama_kv_cache_unified_contextD2Ev",
            "_ggml_vec_silu_f32",
            "__Z20clip_n_output_tokensPK8clip_ctxP14clip_image_f32",
            "_ggml_backend_free",
            "_quantize_iq2_s",
            "__ZNK11llama_vocab11get_add_bosEv",
            "__Z22clip_image_u8_get_dataP13clip_image_u8PjS1_",
            "_ggml_backend_get_default_buffer_type",
            "_gguf_get_val_data",
            "__ZN11llama_vocab4loadER18llama_model_loaderRK6LLM_KV",
            "_ggml_map_custom3_inplace",
            "_ggml_backend_sched_graph_compute_async",
            "_llama_kv_self_seq_keep",
            "__Z21common_token_to_piecePK11llama_vocabib",
            "__Z22postprocess_cpu_paramsR10cpu_paramsPKS_",
            "_ggml_conv_1d_dw_ph",
            "_ggml_mul_mat_set_prec",
            "_ggml_get_max_tensor_size",
            "_ggml_get_tensor",
            "__Z30common_context_params_to_llamaRK13common_params",
            "__Z26common_chat_templates_freeP21common_chat_templates",
            "_ggml_rwkv_wkv6",
            "_ggml_ssm_scan",
            "__ZN22common_chat_msg_parser15consume_literalERKNSt3__112basic_stringIcNS0_11char_traitsIcEENS0_9allocatorIcEEEE",
            "__ZN14MtmdLlmContext10resetMediaEv",
            "_ggml_compute_forward_opt_step_adamw",
            "_ggml_fopen",
            "__ZN30qvac_lib_inference_addon_llama6cancelEP8js_env_sP18js_callback_info_s",
            "__Z19common_params_parseiPPcR13common_params13llama_examplePFviS0_E",
            "__ZN11llama_modelD2Ev",
            "_ggml_vec_dot_iq4_nl_q8_0",
            "_bare_register_module_v0",
            "_dequantize_row_iq1_s",
            "_ggml_backend_cpu_buffer_from_ptr",
            "__ZN13llama_context18get_embeddings_ithEi",
            "__Z12string_stripRKNSt3__112basic_stringIcNS_11char_traitsIcEENS_9allocatorIcEEEE",
            "_ggml_compute_forward_roll",
            "_llama_memory_seq_rm",
            "__Z25llama_format_tensor_shapePK11ggml_tensor",
            "_ggml_print_objects",
            "__Z34common_chat_msgs_to_json_oaicompatIN8nlohmann16json_abi_v3_12_010basic_jsonINS1_11ordered_mapENSt3__16vectorENS4_12basic_stringIcNS4_11char_traitsIcEENS4_9allocatorIcEEEEbxydS9_NS1_14adl_serializerENS5_IhNS9_IhEEEEvEEET_RKNS5_I15common_chat_msgNS9_ISH_EEEEb",
            "__ZN11llama_model10load_vocabER18llama_model_loader",
            "_stbi_is_hdr",
            "_ggml_get_i32_nd",
            "__ZNK11llama_vocab14token_get_textEi",
            "_ggml_compute_forward_sum_rows",
            "_ggml_get_mem_size",
            "_ggml_compute_forward_log",
            "_dequantize_row_tq2_0",
            "__ZN22llama_kv_cache_unified6updateEP13llama_contextbRKNS_11defrag_infoE",
            "_gguf_get_val_u32",
            "_ggml_group_norm_inplace",
            "_ggml_repeat_4d",
            "_ggml_threadpool_chunk_set",
            "__ZN27llama_memory_hybrid_contextC1EP19llama_memory_hybridNSt3__16vectorIjNS2_9allocatorIjEEEENS3_I12llama_ubatchNS4_IS7_EEEE",
            "__ZNK22llama_kv_cache_unified13get_has_shiftEv",
            "_ggml_backend_cpu_set_threadpool",
            "_gguf_set_val_i8",
            "_llama_model_meta_val_str",
            "__Z13llm_type_name8llm_type",
            "_ggml_cpu_has_avx512_bf16",
            "_ggml_compute_forward_reshape",
            "_gguf_set_arr_str",
            "__ZN13llama_context14state_set_dataEPKhm",
            "_ggml_sin",
            "__ZNK17llm_graph_context8build_rsEP18llm_graph_input_rsP11ggml_cgraphP11ggml_tensoriib",
            "_mtmd_input_chunk_free",
            "__ZN20common_chat_msg_diff13compute_diffsERK15common_chat_msgS2_",
            "__ZNK13llama_hparams8n_embd_sEv",
            "__Z17common_json_parseRNSt3__111__wrap_iterIPKcEERKS3_RKNS_12basic_stringIcNS_11char_traitsIcEENS_9allocatorIcEEEER11common_json",
            "__Z23llm_chat_apply_template17llm_chat_templateRKNSt3__16vectorIPK18llama_chat_messageNS0_9allocatorIS4_EEEERNS0_12basic_stringIcNS0_11char_traitsIcEENS5_IcEEEEb",
            "_stbi_zlib_decode_malloc_guesssize",
            "_quantize_iq3_s",
            "_quantize_iq2_xs",
            "__Z18llm_arch_is_hybridRK8llm_arch",
            "__Z26common_embd_similarity_cosPKfS0_i",
            "_gguf_add_tensor",
            "__ZN4ggml3cpu6repack4gemvI10block_q4_0Lx8ELx8EL9ggml_type8EEEviPfmPKvS7_ii",
            "_llama_memory_can_shift",
            "__ZNK12common_regex6searchERKNSt3__112basic_stringIcNS0_11char_traitsIcEENS0_9allocatorIcEEEEmb",
            "_ggml_vec_dot_q3_K_q8_K_generic",
            "_ggml_are_same_shape",
            "__ZNK22llama_kv_cache_unified11seq_pos_maxEi",
            "__Z22string_process_escapesRNSt3__112basic_stringIcNS_11char_traitsIcEENS_9allocatorIcEEEE",
            "__ZNK11llama_vocab4impl9is_normalEi",
            "_ggml_is_contiguous_1",
            "_ggml_log_inplace",
            "_ggml_nrows",
            "_ggml_backend_dev_init",
            "_ggml_unary",
            "__ZN30llama_memory_recurrent_contextC2E19llama_memory_status",
            "_ggml_backend_view_init",
            "_ggml_free",
            "__ZNK11llama_vocab13token_fim_sepEv",
            "_ggml_time_us",
            "__ZNK17llm_graph_context20build_attn_inp_crossEv",
            "__ZNK13llama_hparams12n_embd_v_gqaEj",
            "__ZN27llama_memory_hybrid_contextC2EP19llama_memory_hybrid",
            "__Z22fs_get_cache_directoryv",
            "_ggml_graph_n_nodes",
            "_llama_perf_context",
            "__Z22clip_n_output_tokens_yPK8clip_ctxP14clip_image_f32",
            "__ZNK11llama_model10n_elementsEv",
            "__ZN27llama_kv_cache_unified_iswa8seq_keepEi",
            "_ggml_gemv_q4_0_4x4_q8_0",
            "__ZN27llama_memory_hybrid_context5applyEv",
            "__ZNK35llama_kv_cache_unified_iswa_context8get_baseEv",
            "_ggml_graph_compute",
            "_llama_state_load_file",
            "__Z19clip_image_f32_initv",
            "__ZN22common_chat_msg_parser13add_tool_callERKN8nlohmann16json_abi_v3_12_010basic_jsonINS1_11ordered_mapENSt3__16vectorENS4_12basic_stringIcNS4_11char_traitsIcEENS4_9allocatorIcEEEEbxydS9_NS1_14adl_serializerENS5_IhNS9_IhEEEEvEE",
            "__ZNK11llama_vocab8token_nlEv",
            "__ZN18llama_batch_allocr4initERK11llama_batchRK11llama_vocabPK14llama_memory_ijb",
            "_ggml_is_numa",
            "__Z19ggml_quantize_mat_tILx4EL9ggml_type8EEvPKfPvxx",
            "__ZN35llama_kv_cache_unified_iswa_contextD2Ev",
            "_ggml_silu",
            "_ggml_add1_inplace",
            "__ZN26llm_graph_input_pos_bucket9set_inputEPK12llama_ubatch",
            "_ggml_backend_sched_free",
            "_ggml_backend_sched_get_n_splits",
            "_ggml_compute_forward_conv_transpose_2d",
            "_ggml_fp32_to_fp16_row",
            "_ggml_backend_metal_init",
            "__ZNK11llama_vocab4impl9type_nameEv",
            "_ggml_get_data",
            "__ZN6LLM_KVC1E8llm_archPKc",
            "_ggml_mul_mat",
            "_ggml_can_repeat",
            "__ZN35llama_kv_cache_unified_iswa_contextC2EP27llama_kv_cache_unified_iswaNSt3__16vectorIjNS2_9allocatorIjEEEES6_NS3_I12llama_ubatchNS4_IS7_EEEE",
            "__ZNK11llama_vocab9token_unkEv",
            "_llama_time_us",
            "_ggml_vec_dot_q8_0_q8_0",
            "__ZNK30llama_memory_recurrent_context8get_headEv",
            "__ZN10LlamaModelD2Ev",
            "_ggml_backend_buft_get_alignment",
            "_stbi_set_unpremultiply_on_load_thread",
            "__ZN14TextLlmContext16check_antipromptEv",
            "__Z22clip_has_audio_encoderPK8clip_ctx",
            "_ggml_graph_get_tensor",
            "_stbi_load_16_from_callbacks",
            "__ZN13llama_context10perf_resetEv",
            "__ZNK17llm_graph_context10build_attnEP36llm_graph_input_attn_kv_unified_iswaP11ggml_cgraphP11ggml_tensorS5_S5_S5_S5_S5_S5_fi",
            "__ZNK30llama_kv_cache_unified_context5cpy_vEP12ggml_contextP11ggml_tensori",
            "__ZN13llama_context14get_logits_ithEi",
            "_ggml_quantize_mat_q8_0_4x4_generic",
            "_llama_opt_param_filter_all",
            "_ggml_fp32_to_fp16",
            "__ZNK22llama_kv_cache_unified5get_kEP12ggml_contextij",
            "_llama_kv_self_update",
            "__Z17common_perf_printPK13llama_contextPK14common_sampler",
            "__ZNK22llama_kv_cache_unified18build_graph_defragERK13llama_cparamsP12ggml_contextP11ggml_cgraphRKNS_11defrag_infoE",
            "_quantize_q4_0",
            "_ggml_opt_reset",
            "_stbi_convert_iphone_png_to_rgb",
            "__ZN11llama_vocab4impl14init_tokenizerE16llama_vocab_type",
            "__ZNK22llama_kv_cache_unified8get_n_kvEv",
            "_gguf_get_val_f32",
            "_ggml_backend_tensor_memset",
            "__Z28common_model_params_to_llamaR13common_params",
            "__ZNK11llama_vocab11get_add_eosEv",
            "__ZNK20llama_grammar_parser7c_rulesEv",
            "_ggml_backend_guid",
            "_llama_new_context_with_model",
            "__Z14common_log_addP10common_log14ggml_log_levelPKcz",
            "_llama_memory_seq_div",
            "_ggml_pool_2d_back",
            "_ggml_backend_buffer_get_alloc_size",
            "_llama_sampler_name",
            "__ZN14MtmdLlmContext11evalMessageENSt3__16vectorI15common_chat_msgNS0_9allocatorIS2_EEEEb",
            "__Z13clip_is_llavaPK8clip_ctx",
            "__ZN13llama_context11graph_buildEP12ggml_contextP11ggml_cgraphRK12llama_ubatch14llm_graph_typePK22llama_memory_context_i",
            "_ggml_compute_forward_pool_2d",
            "__ZNK11llama_model16get_rope_factorsERK13llama_cparamsi",
            "_ggml_compute_forward_sub",
            "_ggml_diag_mask_zero_inplace",
            "_ggml_win_part",
            "_mtmd_bitmap_is_audio",
            "_llama_load_session_file",
            "__Z25common_log_set_timestampsP10common_logb",
            "__ZN27llama_kv_cache_unified_iswa9init_fullEv",
            "__ZNK13llama_hparams12n_embd_k_gqaEj",
            "_ggml_gelu_inplace",
            "__ZN30qvac_lib_inference_addon_llama4stopEP8js_env_sP18js_callback_info_s",
            "_llama_vocab_is_eog",
            "_ggml_opt_inputs",
            "_llama_set_embeddings",
            "__ZN28qvac_lib_inference_addon_cpp5AddonI10LlamaModelEC1IJP8js_env_sNSt3__117reference_wrapperIKNS6_12basic_stringIcNS6_11char_traitsIcEENS6_9allocatorIcEEEEEESF_NS7_INS6_13unordered_mapISD_SD_NS6_4hashISD_EENS6_8equal_toISD_EENSB_INS6_4pairISE_SD_EEEEEEEEP10js_value_sSR_SR_EEEDpT_",
            "__ZNK18llama_model_loader13load_data_forEP11ggml_tensor",
            "__ZN18llama_model_loaderC2ERKNSt3__112basic_stringIcNS0_11char_traitsIcEENS0_9allocatorIcEEEERNS0_6vectorIS6_NS4_IS6_EEEEbbPK23llama_model_kv_overridePK32llama_model_tensor_buft_override",
            "_ggml_gallocr_new_n",
            "_ggml_critical_section_start",
            "_ggml_view_1d",
            "_ggml_gallocr_alloc_graph",
            "_ggml_diag_mask_inf",
            "_mtmd_context_params_default",
            "_ggml_opt_dataset_labels",
            "__ZN30llama_kv_cache_unified_contextC1EP22llama_kv_cache_unified",
            "__ZNK11llama_vocab4impl8tokenizeERKNSt3__112basic_stringIcNS1_11char_traitsIcEENS1_9allocatorIcEEEEbb",
            "_ggml_vec_dot_f16",
            "__Z29string_get_sortable_timestampv",
            "_ggml_opt_epoch",
            "_mtmd_encode_chunk",
            "_ggml_diag_mask_zero",
            "__Z18string_replace_allRNSt3__112basic_stringIcNS_11char_traitsIcEENS_9allocatorIcEEEERKS5_S8_",
            "__Z27unicode_cpt_flags_from_utf8RKNSt3__112basic_stringIcNS_11char_traitsIcEENS_9allocatorIcEEEE",
            "_llama_state_seq_load_file",
            "__Z21llm_arch_is_recurrentRK8llm_arch",
            "_llama_kv_self_defrag",
            "__Z15common_has_curlv",
            "__ZNK18llama_model_loader10ftype_nameEv",
            "_ggml_new_tensor",
            "_quantize_row_q2_K_ref",
            "_llama_n_ctx_train",
            "__ZN22llama_kv_cache_unified7seq_divEiiii",
            "_dequantize_row_q5_0",
            "__ZNK13llama_context9get_schedEv",
            "_quantize_row_q4_0",
            "_ggml_backend_buffer_is_host",
            "__ZN4ggml3cpu6repack6repackI10block_q4_KLx8ELx8EEEiP11ggml_tensorPKvm",
            "_ggml_status_to_string",
            "_mtmd_input_chunk_get_tokens_text",
            "_ggml_tallocr_new",
            "_llama_save_session_file",
            "_llama_sampler_init_top_p",
            "_stbi_load_from_file_16",
            "__ZNK11llama_vocab4impl10is_unknownEi",
            "_ggml_roll",
            "_ggml_set_1d_inplace",
            "_llama_model_n_head_kv",
            "_ggml_compute_forward_tanh",
            "_ggml_print_object",
            "__ZN18llama_model_loader13create_tensorEP12ggml_contextRKNSt3__112basic_stringIcNS2_11char_traitsIcEENS2_9allocatorIcEEEERKSt16initializer_listIxEi",
            "_gguf_get_alignment",
            "__ZN10llama_mmapC1EP10llama_filemb",
            "__ZNK27llama_kv_cache_unified_iswa7get_swaEv",
            "_ggml_vec_dot_q8_0_q8_0_generic",
            "_llama_n_embd",
            "__ZN13llama_context6encodeERK11llama_batch",
            "_ggml_backend_sched_set_tensor_backend",
            "_ggml_backend_reg_name",
            "_ggml_backend_init_best",
            "_ggml_gelu_erf",
            "_ggml_opt_result_ndata",
            "__ZN22common_chat_msg_parser13add_tool_callERKNSt3__112basic_stringIcNS0_11char_traitsIcEENS0_9allocatorIcEEEES8_S8_",
            "__ZNK14TextLlmContext8getNPastEv",
            "_ggml_cpu_has_avx512_vbmi",
            "_ggml_view_tensor",
            "__ZN11llama_mlockD1Ev",
            "__Z18clip_n_mmproj_embdPK8clip_ctx",
            "_llama_token_to_piece",
            "__ZN30llama_kv_cache_unified_context5applyEv",
            "__ZNK22llama_memory_recurrent16state_write_dataER16llama_io_write_iRKNSt3__16vectorINS2_4pairIjjEENS2_9allocatorIS5_EEEE",
            "_ggml_opt_result_pred",
            "_ggml_vec_dot_tq1_0_q8_K_generic",
            "_llama_sampler_apply",
            "_stbi_load_16",
            "__ZN22llama_kv_cache_unified15state_read_metaER15llama_io_read_iji",
            "__ZNK13llama_hparams5n_gqaEj",
            "_ggml_reshape_3d",
            "_ggml_rope_ext_back",
            "_llama_kv_self_can_shift",
            "_ggml_graph_get_grad_acc",
            "_ggml_backend_load_all",
            "_llama_get_kv_self",
            "__ZN4ggml3cpu6repack6repackI10block_q4_0Lx8ELx8EEEiP11ggml_tensorPKvm",
            "__ZN13llama_context16set_adapter_loraEP18llama_adapter_loraf",
            "_quantize_row_q6_K",
            "_ggml_time_init",
            "__ZN18llama_batch_allocrC1Ej",
            "_llama_sampler_init_temp_ext",
            "_ggml_compute_forward_gla",
            "__ZNK11llama_model10dev_outputEv",
            "__Z20clip_image_size_initv",
            "__ZN4ggml3cpu6repack4gemmI10block_q4_0Lx4ELx4EL9ggml_type8EEEviPfmPKvS7_ii",
            "__Z28llama_rope_scaling_type_name23llama_rope_scaling_type",
            "__Z17fs_get_cache_fileRKNSt3__112basic_stringIcNS_11char_traitsIcEENS_9allocatorIcEEEE",
            "_ggml_compute_forward_flash_attn_ext",
            "__ZN10common_arg7set_envEPKc",
            "_ggml_cpu_has_ssse3",
            "_mtmd_bitmap_get_data",
            "_mtmd_tokenize",
            "__ZN10LlamaModel11HandleCacheERNSt3__16vectorI15common_chat_msgNS0_9allocatorIS2_EEEERKNS0_12basic_stringIcNS0_11char_traitsIcEENS3_IcEEEE",
            "_ggml_cpu_get_sve_cnt",
            "_llama_kv_self_clear",
            "_ggml_vec_dot_q5_K_q8_K_generic",
            "_ggml_backend_buffer_set_usage",
            "__Z35ggml_backend_cpu_repack_buffer_typev",
            "_ggml_is_vector",
            "__ZN4ggml3cpu6repack4gemvI10block_q4_0Lx8ELx4EL9ggml_type8EEEviPfmPKvS7_ii",
            "_ggml_backend_buffer_clear",
            "_ggml_cpu_fp32_to_fp16",
            "_llama_set_n_threads",
            "_llama_model_meta_val_str_by_index",
            "_ggml_n_dims",
            "__ZN13llama_context19state_seq_load_fileEiPKcPimPm",
            "__ZN27llama_memory_hybrid_contextC1EP19llama_memory_hybridP13llama_contextb",
            "_llama_get_embeddings",
            "_ggml_compute_forward_sum",
            "_quantize_iq4_nl",
            "__Z18get_model_endpointv",
            "_quantize_row_q5_K_ref",
            "_ggml_silu_back",
            "__ZNK11llama_vocab13token_fim_padEv",
            "_dequantize_row_iq4_xs",
            "__ZN4ggml3cpu17extra_buffer_typeD1Ev",
            "_ggml_exp",
            "_ggml_graph_compute_with_ctx",
            "__ZNK10llama_file4tellEv",
            "_llama_sampler_free",
            "_ggml_conv_1d",
            "_ggml_blck_size",
            "__ZN18llama_batch_allocr12split_simpleEj",
            "__ZNK22llama_memory_recurrent13get_can_shiftEv",
            "__Z20unicode_utf8_to_byteRKNSt3__112basic_stringIcNS_11char_traitsIcEENS_9allocatorIcEEEE",
            "__ZNK11llama_vocab6is_eogEi",
            "_ggml_opt_dataset_get_batch",
            "_ggml_backend_dev_offload_op",
            "_llama_detach_threadpool",
            "_ggml_quantize_requires_imatrix",
            "_quantize_row_iq4_nl_ref",
            "_stbi_zlib_decode_malloc",
            "_ggml_compute_forward_custom",
            "_ggml_tallocr_alloc",
            "_ggml_gemv_q4_0_4x4_q8_0_generic",
            "_ggml_custom_4d",
            "_stbi_set_unpremultiply_on_load",
            "_ggml_backend_graph_plan_compute",
            "__ZNK27llama_kv_cache_unified_iswa8get_baseEv",
            "_llama_perf_context_print",
            "__ZN30llama_memory_recurrent_contextC1E19llama_memory_status",
            "__ZNK11llama_vocab12token_prefixEv",
            "_ggml_format_name",
            "_quantize_row_iq3_s_ref",
            "_ggml_vec_dot_iq4_xs_q8_K_generic",
            "_mtmd_bitmap_get_n_bytes",
            "_ggml_threadpool_params_match",
            "_llama_log_set",
            "_mtmd_input_chunks_get",
            "_gguf_get_tensor_type",
            "__ZN13llama_context9opt_epochEP16ggml_opt_datasetP15ggml_opt_resultS3_xPFvbP16ggml_opt_contextS1_S3_xxxES7_",
            "__ZNK18llama_batch_allocr11seq_pos_minEi",
            "__ZN19llama_memory_hybrid9init_fullEv",
            "_ggml_is_empty",
            "_mtmd_helper_eval_chunk_single",
            "__ZN22llama_kv_cache_unified7prepareERKNSt3__16vectorI12llama_ubatchNS0_9allocatorIS2_EEEE",
            "_ggml_compute_forward_pad_reflect_1d",
            "__ZN16llama_io_write_i12write_stringERKNSt3__112basic_stringIcNS0_11char_traitsIcEENS0_9allocatorIcEEEE",
            "_gguf_get_val_f64",
            "_stbi_is_16_bit",
            "_quantize_q5_1",
            "__ZNK13llama_hparams6is_swaEj",
            "_ggml_cpu_has_vxe",
            "__ZNK35llama_kv_cache_unified_iswa_context7get_swaEv",
            "__ZN10common_arg10set_sparamEv",
            "_llama_sampler_chain_init",
            "_llama_sampler_init_grammar",
            "_ggml_cpu_has_sme",
            "__ZNK11llama_vocab10detokenizeEPKiiPcibb",
            "_llama_split_prefix",
            "__ZN12common_regexC2ERKNSt3__112basic_stringIcNS0_11char_traitsIcEENS0_9allocatorIcEEEE",
            "__ZN22common_chat_msg_parser6finishEv",
            "__ZNK11llama_vocab4impl14token_to_pieceEi",
            "__ZN30llama_memory_recurrent_contextC2EP22llama_memory_recurrent",
            "__ZNK18llama_model_loader17check_tensor_dimsERKNSt3__112basic_stringIcNS0_11char_traitsIcEENS0_9allocatorIcEEEERKNS0_6vectorIxNS4_IxEEEEb",
            "__ZNK22llama_kv_cache_unified17set_input_k_shiftEP11ggml_tensor",
            "__ZN28qvac_lib_inference_addon_cpp5AddonI10LlamaModelE6appendEiNSt3__17variantIJNS3_12basic_stringIcNS3_11char_traitsIcEENS3_9allocatorIcEEEENS3_6vectorIhNS8_IhEEEEEEE",
            "_gguf_get_kv_type",
            "_ggml_im2col_back",
            "_gguf_set_val_i32",
            "__ZNK11llama_vocab9is_unusedEi",
            "__ZN18llama_batch_allocr11split_resetEv",
            "_llama_model_n_cls_out",
            "__ZNK13llama_context12graph_get_cbEv",
            "_gguf_set_val_str",
            "__Z13llm_arch_name8llm_arch",
            "__ZN22llama_kv_cache_unified11get_paddingERK13llama_cparams",
            "__Z30llama_relative_position_bucketiiyb",
            "_llama_sampler_init_dist",
            "_quantize_row_q4_1_ref",
            "__ZNK17llm_graph_context24build_inp_pos_bucket_decEv",
            "_bare_get_module_name_v0",
            "_ggml_vec_dot_q6_K_q8_K_generic",
            "_ggml_backend_dev_supports_op",
            "_ggml_vec_dot_iq1_m_q8_K",
            "_stbi_load_16_from_memory",
            "__Z15clip_is_qwen2vlPK8clip_ctx",
            "_ggml_pad",
            "_ggml_conv_1d_ph",
            "__ZN13llama_context13set_n_threadsEii",
            "__ZN13llama_context14get_embeddingsEv",
            "_ggml_compute_forward_win_part",
            "__ZNK17llm_graph_context24build_inp_pos_bucket_encEv",
            "_ggml_vec_dot_q4_1_q8_1",
            "_ggml_set_i32_1d",
            "_llama_state_seq_set_data",
            "_ggml_backend_dev_type",
            "_ggml_backend_get_device",
            "__Z24clip_has_whisper_encoderPK8clip_ctx",
            "_ggml_get_next_tensor",
            "__Z15common_log_freeP10common_log",
            "__ZNK11llama_model11build_graphERK16llm_graph_paramsP11ggml_cgraph14llm_graph_type",
            "__ZN10llama_mmapC2EP10llama_filemb",
            "__ZNK11llama_vocab30get_treat_whitespace_as_suffixEv",
            "__Z16unicode_len_utf8c",
            "_ggml_graph_overhead",
            "_ggml_backend_device_register",
            "_llama_print_system_info",
            "_stbi_loadf_from_callbacks",
            "__Z32common_chat_msgs_parse_oaicompatINSt3__112basic_stringIcNS0_11char_traitsIcEENS0_9allocatorIcEEEEENS0_6vectorI15common_chat_msgNS4_IS8_EEEERKT_",
            "__Z15common_tokenizePK13llama_contextRKNSt3__112basic_stringIcNS2_11char_traitsIcEENS2_9allocatorIcEEEEbb",
            "_ggml_graph_overhead_custom",
            "_dequantize_row_q8_0",
            "__Z29common_sampler_get_candidatesP14common_sampler",
            "_quantize_row_q4_K",
            "_mtmd_get_output_embd",
            "__Z29clip_image_f32_batch_n_imagesPK20clip_image_f32_batch",
            "_ggml_vec_dot_f32",
            "_ggml_conv_2d_dw",
            "__ZN13llama_context14kv_self_updateEb",
            "_ggml_set_zero",
            "__ZN22common_chat_msg_parser14try_find_regexERK12common_regexmb",
            "_ggml_vec_dot_q4_K_q8_K_generic",
            "_llama_sampler_reset",
            "_ggml_rope_yarn_corr_dims",
            "_ggml_numa_init",
            "_dequantize_row_q5_1",
            "__ZNK11llama_vocab10detokenizeERKNSt3__16vectorIiNS0_9allocatorIiEEEEb",
            "_ggml_vec_dot_q4_K_q8_K",
            "__ZNK18llama_batch_allocr9get_batchEv",
            "_ggml_abs_inplace",
            "_gguf_get_tensor_name",
            "_llama_token_fim_pad",
            "__ZNK11llama_vocab9type_nameEv",
            "_ggml_backend_dev_host_buffer_type",
            "_llama_token_get_score",
            "_gguf_get_val_u16",
            "_llama_init_from_model",
            "__ZNK11llama_vocab19get_tokenizer_modelEv",
            "__ZNK17llm_graph_context14build_inp_meanEv",
            "_ggml_backend_reg_by_name",
            "_llama_model_n_embd",
            "__Z23common_sampler_get_seedPK14common_sampler",
            "_llama_sampler_chain_n",
            "_ggml_graph_get_grad",
            "_llama_vocab_fim_suf",
            "_ggml_backend_reg_dev_get",
            "_gguf_set_tensor_type",
            "__ZN27llama_kv_cache_unified_iswa11init_updateEP13llama_contextb",
            "__ZN13llama_context18state_seq_set_dataEiPKhm",
            "_ggml_compute_forward_exp",
            "__ZNK13llama_context13n_ctx_per_seqEv",
            "_llama_set_abort_callback",
            "__ZN11llama_vocabC1Ev",
            "_stbi_zlib_decode_buffer",
            "__ZN30qvac_lib_inference_addon_llama6statusEP8js_env_sP18js_callback_info_s",
            "_llama_sampler_chain_add",
            "_ggml_opt_dataset_shuffle",
            "_llama_vocab_get_add_bos",
            "_quantize_q4_K",
            "__ZN9time_measD2Ev",
            "__ZNK27llama_kv_cache_unified_iswa11seq_pos_maxEi",
            "_ggml_sub_inplace",
            "__ZN10LlamaModelC1ERKNSt3__112basic_stringIcNS0_11char_traitsIcEENS0_9allocatorIcEEEES8_RNS0_13unordered_mapIS6_S6_NS0_4hashIS6_EENS0_8equal_toIS6_EENS4_INS0_4pairIS7_S6_EEEEEE",
            "__Z21clip_patch_merge_typePK8clip_ctx",
            "__ZN19llama_memory_hybridC1ERK11llama_model9ggml_typeS3_bjjj14llama_swa_typeS3_S3_jjbONSt3__18functionIFbiEEES9_",
            "_ggml_threadpool_chunk_add",
            "__ZNK27llama_kv_cache_unified_iswa11seq_pos_minEi",
            "_ggml_compute_forward_clamp",
            "__ZNK11llama_vocab4impl22tokenizer_st_partitionERNSt3__112forward_listI23fragment_buffer_variantNS1_9allocatorIS3_EEEEb",
            "__ZN18llama_model_loader21create_tensor_as_viewEP12ggml_contextP11ggml_tensorRKNSt3__112basic_stringIcNS4_11char_traitsIcEENS4_9allocatorIcEEEERKSt16initializer_listIxEmb",
            "_ggml_gallocr_free",
            "__ZN14TextLlmContextC1ER13common_params",
            "_mtmd_decode_use_mrope",
            "__ZN17llama_model_saver10add_tensorEPK11ggml_tensor",
            "_ggml_get_data_f32",
            "_stbi_load",
            "_quantize_iq2_xxs",
            "__ZNK30llama_kv_cache_unified_context8get_n_kvEv",
            "__Z13string_repeatRKNSt3__112basic_stringIcNS_11char_traitsIcEENS_9allocatorIcEEEEm",
            "_ggml_opt_ncorrect",
            "__ZNK11llama_model9type_nameEv",
            "_llama_copy_state_data",
            "_ggml_vec_dot_q5_1_q8_1",
            "__ZNK22llama_memory_recurrent12size_r_bytesEv",
            "_ggml_opt_eval",
            "_ggml_backend_graph_copy",
            "_ggml_vec_dot_q4_0_q8_0",
            "_ggml_vec_dot_iq2_xs_q8_K",
            "__Z26common_chat_templates_initPK11llama_modelRKNSt3__112basic_stringIcNS2_11char_traitsIcEENS2_9allocatorIcEEEESA_SA_",
            "_mtmd_free",
            "_ggml_compute_forward_acc",
            "_ggml_vec_soft_max_f32",
            "_ggml_rwkv_wkv7",
            "__Z32fs_create_directory_with_parentsRKNSt3__112basic_stringIcNS_11char_traitsIcEENS_9allocatorIcEEEE",
            "_ggml_view_3d",
            "_quantize_row_q4_0_ref",
            "_llama_chat_apply_template",
            "_ggml_aligned_malloc",
            "_llama_vocab_bos",
            "_ggml_backend_sched_reset",
            "__ZNK22llama_kv_cache_unified5get_vEP12ggml_contextij",
            "_llama_state_seq_get_data",
            "_llama_token_eot",
            "__ZNK30llama_memory_recurrent_context8get_rs_zEv",
            "_quantize_row_q5_1",
            "_llama_vocab_sep",
            "_ggml_map_custom1_inplace",
            "_llama_kv_self_seq_pos_min",
            "__Z28clip_image_f32_batch_add_melP20clip_image_f32_batchiiPf",
            "_mtmd_test_create_input_chunks",
            "_ggml_backend_compare_graph_backend",
            "__ZN10LlamaModel9LoadMediaERKNSt3__17variantIJNS0_12basic_stringIcNS0_11char_traitsIcEENS0_9allocatorIcEEEENS0_6vectorIhNS5_IhEEEEEEE",
            "_llama_sampler_init_dry",
            "_ggml_cycles_per_ms",
            "_quantize_q6_K",
            "__ZNK11llama_vocab9token_sepEv",
            "_ggml_compute_forward_sqrt",
            "_quantize_row_tq1_0",
            "_llama_kv_self_seq_add",
            "__ZN30qvac_lib_inference_addon_llama11loadWeightsEP8js_env_sP18js_callback_info_s",
            "_ggml_flash_attn_ext",
            "_ggml_fp32_to_bf16_row_ref",
            "__Z23clip_image_f32_batch_nyPK20clip_image_f32_batchi",
            "__ZN14MtmdLlmContext12TokenizeChatERKNSt3__16vectorI15common_chat_msgNS0_9allocatorIS2_EEEERN4mtmd12input_chunksEb",
            "_ggml_backend_buffer_copy_tensor",
            "__ZNK22llama_kv_cache_unified17build_graph_shiftERK13llama_cparamsP12ggml_contextP11ggml_cgraph",
            "_llama_model_get_vocab",
            "_ggml_log",
            "_llama_perf_sampler_reset",
            "__ZN26llm_graph_input_mem_hybrid9set_inputEPK12llama_ubatch",
            "_ggml_compute_forward_set",
            "__ZN11llama_modelD1Ev",
            "__ZN18llama_batch_allocr12ubatch_printERK12llama_ubatchi",
            "__ZNK11LLM_TN_IMPL3strEv",
            "_ggml_gemm_q4_0_4x4_q8_0",
            "__Z23llama_grammar_init_implPK11llama_vocabPKcS3_bPS3_mPKim",
            "_ggml_repeat",
            "_ggml_new_i32",
            "_ggml_upscale",
            "_dequantize_row_q8_K",
            "_ggml_threadpool_params_default",
            "_ggml_graph_view",
            "__ZN13llama_context15state_load_fileEPKcPimPm",
            "__Z23common_init_from_paramsR13common_params",
            "__ZN17llm_graph_contextC2ERK16llm_graph_params",
            "_ggml_cpu_has_bmi2",
            "_ggml_graph_dump_dot",
            "_ggml_backend_buft_name",
            "_ggml_vec_dot_iq2_s_q8_K_generic",
            "_ggml_backend_buffer_get_max_size",
            "__ZNK11llama_vocab4impl10detokenizeEPKiiPcibb",
            "_ggml_backend_reg_dev_count",
            "__ZN14TextLlmContext10resetStateEv",
            "_ggml_compute_forward_argsort",
            "__Z25clip_image_f32_batch_freeP20clip_image_f32_batch",
            "_ggml_cpu_extra_compute_forward",
            "__Z38ggml_threadpool_params_from_cpu_paramsRK10cpu_params",
            "_ggml_gemm_q4_0_4x8_q8_0",
            "__Z23common_opt_dataset_initP13llama_contextRKNSt3__16vectorIiNS1_9allocatorIiEEEEx",
            "_ggml_unary_op_name",
            "__Z13build_grammarRKNSt3__18functionIFvRK22common_grammar_builderEEERK22common_grammar_options",
            "_ggml_compute_forward_scale",
            "__Z23clip_has_vision_encoderPK8clip_ctx",
            "__ZNK17llm_graph_context14build_pos_biasEP11ggml_tensorS1_",
            "__Z22unicode_cpts_from_utf8RKNSt3__112basic_stringIcNS_11char_traitsIcEENS_9allocatorIcEEEE",
            "_ggml_backend_metal_buffer_type",
            "_dequantize_row_q4_K",
            "_gguf_write_to_file",
            "__ZNK11llama_vocab8tokenizeEPKciPiibb",
            "__ZNK22llama_kv_cache_unified9find_slotERK12llama_ubatch",
            "_ggml_backend_dev_backend_reg",
            "_ggml_hardswish",
            "__ZNK22llama_kv_cache_unified20set_input_pos_bucketEP11ggml_tensorPK12llama_ubatch",
            "__ZNK11llama_vocab14token_to_pieceEi",
            "_mtmd_image_tokens_get_nx",
            "__Z24string_parse_kv_overridePKcRNSt3__16vectorI23llama_model_kv_overrideNS1_9allocatorIS3_EEEE",
            "_ggml_sigmoid_inplace",
            "__ZN13llama_context14output_reserveEi",
            "_ggml_cpu_has_fma",
            "__ZNK11llama_vocab4impl10print_infoEv",
            "_ggml_compute_forward_mean",
            "_ggml_new_graph_custom",
            "_ggml_backend_alloc_ctx_tensors",
            "__Z25clip_image_f32_batch_initv",
            "_ggml_upscale_ext",
            "__Z10common_lcsRKNSt3__16vectorIiNS_9allocatorIiEEEES5_",
            "__ZN18llama_model_loader13init_mappingsEbPNSt3__16vectorINS0_10unique_ptrI11llama_mlockNS0_14default_deleteIS3_EEEENS0_9allocatorIS6_EEEE",
            "__ZN6LLM_KVC2E8llm_archPKc",
            "_ggml_backend_sched_get_tensor_backend",
            "__ZNK35llama_kv_cache_unified_iswa_context10get_statusEv",
            "_stbi_hdr_to_ldr_scale",
            "__ZN13llama_context18clear_adapter_loraEv",
            "__ZN22llama_memory_recurrent10state_readER15llama_io_read_ii",
            "_llama_n_head",
            "_stbi_load_from_file",
            "__Z6formatPKcz",
            "__ZN22common_chat_msg_parser13consume_regexERK12common_regex",
            "_llama_model_has_encoder",
            "_ggml_vec_dot_tq2_0_q8_K_generic",
            "_llama_vocab_get_add_eos",
            "__Z24gguf_init_from_file_implP7__sFILE16gguf_init_params",
            "_ggml_step_inplace",
            "__ZN10llama_mmapD2Ev",
            "_ggml_vec_dot_q4_0_q8_0_generic",
            "_ggml_backend_tensor_get",
            "_llama_model_is_recurrent",
            "_ggml_reshape_4d",
            "__ZN19llama_memory_hybrid10init_batchER18llama_batch_allocrjb",
            "__ZNK13llama_hparams14n_pos_per_embdEv",
            "__ZN28qvac_lib_inference_addon_cpp11JsInterfaceINS_5AddonI10LlamaModelEEE14createInstanceEP8js_env_sP18js_callback_info_s",
            "_ggml_backend_metal_capture_next_compute",
            "__ZN10common_arg18get_value_from_envERNSt3__112basic_stringIcNS0_11char_traitsIcEENS0_9allocatorIcEEEE",
            "_ggml_backend_blas_init",
            "_ggml_backend_sched_get_buffer_size",
            "__ZN22llama_memory_recurrent7seq_addEiiii",
            "_ggml_vec_dot_iq3_s_q8_K_generic",
            "__ZN13llama_context20state_seq_write_dataER16llama_io_write_ii",
            "__ZNK22llama_kv_cache_unified11seq_pos_minEi",
            "_ggml_compute_forward_silu_back",
            "_llama_token_nl",
            "__ZN22llama_kv_cache_unified7seq_addEiiii",
            "_ggml_cos_inplace",
            "__Z16cpu_get_num_mathv",
            "__ZNK13llama_context7n_batchEv",
            "_ggml_cont_4d",
            "__ZN13llama_context14state_get_sizeEv",
            "__Z29llama_internal_get_tensor_mapPK11llama_model",
            "__ZN10llama_mmapD1Ev",
            "__Z33common_chat_tools_parse_oaicompatINSt3__112basic_stringIcNS0_11char_traitsIcEENS0_9allocatorIcEEEEENS0_6vectorI16common_chat_toolNS4_IS8_EEEERKT_",
            "__Z15unicode_tolowerj",
            "__ZN17llm_graph_contextC1ERK16llm_graph_params",
            "_llama_sampler_init_mirostat",
            "__ZNK17llm_graph_context10build_attnEP31llm_graph_input_attn_kv_unifiedP11ggml_cgraphP11ggml_tensorS5_S5_S5_S5_S5_S5_fi",
            "_ggml_opt_epoch_callback_progress_bar",
            "_ggml_compute_forward_repeat_back",
            "_llama_token_is_control",
            "_ggml_tanh",
            "_ggml_backend_buffer_get_type",
            "__ZN10LlamaModel10ResetStateEv",
            "_llama_adapter_lora_init",
            "_ggml_relu_inplace",
            "_ggml_backend_tensor_set_async",
            "_llama_model_cls_label",
            "__ZNK17llm_graph_context10build_normEP11ggml_tensorS1_S1_13llm_norm_typei",
            "_ggml_gemv_q4_0_8x8_q8_0",
            "_llama_sampler_accept",
            "__ZNK18llama_adapter_cvec8apply_toEP12ggml_contextP11ggml_tensori",
            "__ZN30qvac_lib_inference_addon_llama15destroyInstanceEP8js_env_sP18js_callback_info_s",
            "_quantize_row_q5_1_ref",
            "__ZNK18llama_batch_allocr13get_n_outputsEv",
            "__ZNK11llama_vocab7is_byteEi",
            "__ZNK18llama_model_loader14require_weightEPKc",
            "_ggml_cpy",
            "_ggml_gemm_q4_0_4x8_q8_0_generic",
            "_stbi_zlib_decode_malloc_guesssize_headerflag",
            "__Z13string_formatPKcz",
            "_ggml_sin_inplace",
            "_ggml_cpu_has_arm_fma",
            "_ggml_transpose",
            "_llama_sampler_chain_remove",
            "_mtmd_bitmap_set_id",
            "_ggml_backend_synchronize",
            "_ggml_compute_forward_get_rel_pos",
            "__ZN12common_regexC1ERKNSt3__112basic_stringIcNS0_11char_traitsIcEENS0_9allocatorIcEEEE",
            "__ZNK17llm_graph_context10build_attnEP26llm_graph_input_mem_hybridP11ggml_cgraphP11ggml_tensorS5_S5_S5_S5_S5_S5_fi",
            "_llama_model_default_params",
            "_mtmd_helper_bitmap_init_from_file",
            "__ZN4ggml3cpu6repack6repackI10block_q4_0Lx8ELx4EEEiP11ggml_tensorPKvm",
            "__ZNK30llama_kv_cache_unified_context5get_vEP12ggml_contexti",
            "_ggml_backend_metal_set_abort_callback",
            "__ZNK14MtmdLlmContext8getNPastEv",
            "_ggml_reshape",
            "__ZN11llama_mlockC2Ev",
            "__Z24llama_grammar_apply_implRK13llama_grammarP22llama_token_data_array",
            "_gguf_set_kv",
            "__ZN13llama_context16state_write_dataER16llama_io_write_i",
            "_llama_model_n_head",
            "__ZN13llama_context10graph_initEv",
            "__ZN11llama_mlock7grow_toEm",
            "__ZNK11llama_vocab14token_to_pieceEiPciib",
            "__Z26clip_build_img_from_pixelsPKhiiP13clip_image_u8",
            "__ZN13llama_context17attach_threadpoolEP15ggml_threadpoolS1_",
            "__ZN4ggml3cpu13tensor_traitsD1Ev",
            "_gguf_get_val_i8",
            "_ggml_backend_tensor_set",
            "_llama_sampler_init_xtc",
            "__ZN4ggml3cpu6repack4gemmI10block_q4_KLx8ELx8EL9ggml_type15EEEviPfmPKvS7_ii",
            "_ggml_cpu_has_fp16_va",
            "_llama_token_fim_suf",
            "__Z31common_sampler_types_from_charsRKNSt3__112basic_stringIcNS_11char_traitsIcEENS_9allocatorIcEEEE",
            "_dequantize_row_iq3_xxs",
            "__ZN22llama_memory_recurrent9init_fullEv",
            "_llama_token_sep",
            "__ZN14TextLlmContextC2ER13common_params",
            "_llama_vocab_get_attr",
            "__ZN10common_arg12set_excludesESt16initializer_listI13llama_exampleE",
            "_stbi_loadf_from_memory",
            "_llama_vocab_eot",
            "_quantize_row_iq4_xs",
            "_gguf_get_val_i64",
            "__ZN9time_measC1ERxb",
            "__ZNK22llama_kv_cache_unified13is_masked_swaEii",
            "__ZN30llama_kv_cache_unified_contextC1EP22llama_kv_cache_unifiedP13llama_contextbNS0_11defrag_infoE",
            "__Z14llama_path_maxv",
            "__ZNK11llama_vocab13find_bpe_rankERKNSt3__112basic_stringIcNS0_11char_traitsIcEENS0_9allocatorIcEEEES8_",
            "__ZNK17llm_graph_context8build_rsEP26llm_graph_input_mem_hybridP11ggml_cgraphP11ggml_tensoriib",
            "__ZN14TextLlmContext12TokenizeChatERKNSt3__16vectorI15common_chat_msgNS0_9allocatorIS2_EEEERNS1_IiNS3_IiEEEEb",
            "_llama_pooling_type",
            "__ZN14TextLlmContext11evalMessageENSt3__16vectorI15common_chat_msgNS0_9allocatorIS2_EEEEb",
            "_llama_get_state_size",
            "__Z31common_sampler_types_from_namesRKNSt3__16vectorINS_12basic_stringIcNS_11char_traitsIcEENS_9allocatorIcEEEENS4_IS6_EEEEb",
            "_mtmd_helper_bitmap_init_from_buf",
            "__ZNK22llama_kv_cache_unified12size_k_bytesEv",
            "_mtmd_bitmap_free",
            "_ggml_cont",
            "__ZN22llama_memory_recurrent7seq_divEiiii",
            "_ggml_opt_get_constant_optimizer_params",
            "__ZNK10llama_file8read_rawEPvm",
            "__ZNK18llama_model_loader8get_archEv",
            "__ZNK11llama_vocab4impl6is_eogEi",
            "__ZNK11llama_vocab13max_token_lenEv",
            "_ggml_set_i32",
            "__ZN17llama_model_saver4saveERKNSt3__112basic_stringIcNS0_11char_traitsIcEENS0_9allocatorIcEEEE",
            "_ggml_gemv_iq4_nl_4x4_q8_0_generic",
            "__ZN10common_arg12set_examplesESt16initializer_listI13llama_exampleE",
            "__ZN14TextLlmContext8setNPastEi",
            "__ZNK18llama_model_loader13get_arch_nameEv",
            "__ZNK11llama_vocab13token_to_byteEi",
            "__ZN4ggml3cpu13tensor_traitsD0Ev",
            "_ggml_elu",
            "__Z11common_initv",
            "_ggml_backend_dev_supports_buft",
            "_ggml_compute_forward_out_prod",
            "__ZN4ggml3cpu6repack4gemmI10block_q4_0Lx8ELx8EL9ggml_type8EEEviPfmPKvS7_ii",
            "_ggml_opt_get_default_optimizer_params",
            "_llama_batch_init",
            "__ZN13llama_context13graph_computeEP11ggml_cgraphb",
            "_llama_model_decoder_start_token",
            "_llama_sampler_init_greedy",
            "_llama_vocab_fim_mid",
            "_ggml_backend_cpu_set_abort_callback",
            "_quantize_row_q5_K",
            "_ggml_compute_forward_cross_entropy_loss",
            "__ZN22llama_memory_recurrent9find_slotERK12llama_ubatch",
            "__ZN14MtmdLlmContext16check_antipromptEv",
            "_ggml_vec_log_soft_max_f32",
            "__Z25llama_format_tensor_shapeRKNSt3__16vectorIxNS_9allocatorIxEEEE",
            "__ZNK11llama_vocab13token_fim_repEv",
            "__ZNK11llama_vocab4impl7is_byteEi",
            "__ZNK27llama_kv_cache_unified_iswa13get_can_shiftEv",
            "__ZNK11llama_model4sizeEv",
            "__ZNK13llama_context15graph_max_nodesEv",
            "_ggml_l2_norm_inplace",
            "_llama_rm_adapter_lora",
            "_ggml_vec_dot_iq1_s_q8_K_generic",
            "__ZNK11llama_vocab9token_eomEv",
            "_ggml_add_rel_pos",
            "_ggml_vec_dot_iq2_xs_q8_K_generic",
            "__ZN17llama_model_saver6add_kvE6llm_kvb",
            "_llama_add_eos_token",
            "_llama_sampler_chain_default_params",
            "_ggml_timestep_embedding",
            "__ZN27llama_memory_hybrid_contextC2EP19llama_memory_hybridP13llama_contextb",
            "__ZNK17llm_graph_context30build_attn_inp_kv_unified_iswaEv",
            "_ggml_backend_register",
            "_llama_vocab_eos",
            "_mtmd_input_chunk_get_tokens_image",
            "__Z11replace_allRNSt3__112basic_stringIcNS_11char_traitsIcEENS_9allocatorIcEEEERKS5_S8_",
            "_llama_model_rope_freq_scale_train",
            "__ZN20llama_grammar_parser5parseEPKc",
            "_ggml_backend_buffer_get_base",
            "__Z34common_chat_templates_was_explicitPK21common_chat_templates",
            "_ggml_hash_set_reset",
            "_llama_sampler_clone",
            "_quantize_row_q8_K",
            "__ZNK18llama_model_loader10get_weightEPKc",
            "__ZN10common_arg18has_value_from_envEv",
            "__Z26common_control_vector_loadRKNSt3__16vectorI31common_control_vector_load_infoNS_9allocatorIS1_EEEE",
            "_ggml_cpu_has_sve",
            "_llama_max_devices",
            "_ggml_backend_tensor_get_async",
            "_ggml_abort",
            "__ZNK30llama_memory_recurrent_context8get_sizeEv",
            "_gguf_get_arr_type",
            "_ggml_graph_plan",
            "_llama_sampler_init_logit_bias",
            "__Z21common_sampler_acceptP14common_samplerib",
            "__Z20clip_image_size_freeP15clip_image_size",
            "_ggml_compute_forward_norm",
            "__ZNK19llama_memory_hybrid11seq_pos_maxEi",
            "_ggml_opt_grad_acc",
            "__Z23clip_get_newline_tensorPK8clip_ctx",
            "__Z24llm_chat_detect_templateRKNSt3__112basic_stringIcNS_11char_traitsIcEENS_9allocatorIcEEEE",
            "__ZN22llama_kv_cache_unified10init_batchER18llama_batch_allocrjb",
            "_ggml_backend_buffer_name",
            "_llama_supports_rpc",
            "__ZN22common_chat_msg_parser12consume_jsonEv",
            "__ZNK17llm_graph_context13build_poolingEP11ggml_cgraphP11ggml_tensorS3_S3_S3_",
            "_gguf_get_meta_data",
            "__ZN13llama_context6decodeERK11llama_batch",
            "__Z22clip_image_f32_get_imgPK20clip_image_f32_batchi",
            "__ZN10llama_fileD2Ev",
            "_llama_n_threads",
            "_ggml_is_contiguous_0",
            "__ZN30llama_kv_cache_unified_contextC2EP22llama_kv_cache_unified",
            "__ZNK17llm_graph_context10build_cvecEP11ggml_tensori",
            "__ZNK30llama_kv_cache_unified_context5get_kEP12ggml_contexti",
            "_ggml_vec_dot_iq4_nl_q8_0_generic",
            "__ZNK11llama_vocab14token_get_attrEi",
            "_llama_model_save_to_file",
            "_ggml_compute_forward_cross_entropy_loss_back",
            "__ZN28qvac_lib_inference_addon_cpp5AddonI10LlamaModelEC2IJP8js_env_sNSt3__117reference_wrapperIKNS6_12basic_stringIcNS6_11char_traitsIcEENS6_9allocatorIcEEEEEENS7_INS6_13unordered_mapISD_SD_NS6_4hashISD_EENS6_8equal_toISD_EENSB_INS6_4pairISE_SD_EEEEEEEEP10js_value_sSR_SR_EEEDpT_",
            "__ZNK22llama_kv_cache_unified5cpy_kEP12ggml_contextP11ggml_tensorij",
            "_ggml_hardsigmoid",
            "_gguf_get_version",
            "__ZNK22llama_memory_recurrent11seq_pos_minEi",
            "_ggml_compute_forward_l2_norm",
            "__ZN20llama_grammar_parser5printEP7__sFILE",
            "_ggml_cpu_has_avx512",
            "_ggml_cycles",
            "__ZNK22llama_memory_recurrent11seq_pos_maxEi",
            "_ggml_gemv_iq4_nl_4x4_q8_0",
            "_ggml_out_prod",
            "_ggml_threadpool_params_init",
            "_ggml_row_size",
            "__ZN19llama_memory_hybrid7seq_addEiiii",
            "__ZN22llama_memory_recurrent10init_batchER18llama_batch_allocrjb",
            "_mtmd_image_tokens_get_id",
            "__ZN23llm_graph_input_k_shift9set_inputEPK12llama_ubatch",
            "_mtmd_get_audio_bitrate",
            "_llama_perf_sampler_print",
            "__ZN17llama_model_saverD1Ev",
            "__ZNK11llama_model9dev_layerEi",
            "__ZNK11llama_vocab13n_token_typesEv",
            "__ZN22common_chat_msg_parser29consume_json_with_dumped_argsERKNSt3__16vectorINS1_INS0_12basic_stringIcNS0_11char_traitsIcEENS0_9allocatorIcEEEENS5_IS7_EEEENS5_IS9_EEEESD_",
            "__Z39ggml_backend_cpu_get_extra_buffers_typev",
            "_ggml_backend_graph_copy_free",
            "_ggml_backend_event_wait",
            "_llama_model_n_ctx_train",
            "_ggml_backend_reg_get_proc_address",
            "__ZNK11llama_vocab12get_pre_typeEv",
            "_ggml_cpu_has_dotprod",
            "_ggml_compute_forward_rms_norm",
            "_ggml_cpu_fp16_to_fp32",
            "_ggml_backend_dev_description",
            "_ggml_mul_inplace",
            "_ggml_conv_1d_dw",
            "_ggml_unravel_index",
            "_ggml_get_name",
            "_ggml_compute_forward_diag_mask_zero",
            "_ggml_l2_norm",
            "_ggml_backend_dev_get_props",
            "_llama_adapter_lora_free",
            "_ggml_compute_forward_sigmoid",
            "__ZN30llama_memory_recurrent_context5applyEv",
            "__ZN22common_chat_msg_parser16try_consume_jsonEv",
            "__ZN35llama_kv_cache_unified_iswa_contextC1EP27llama_kv_cache_unified_iswaP13llama_contextb",
            "__ZN20llama_grammar_parser10parse_ruleEPKc",
            "_ggml_rms_norm_inplace",
            "_llama_perf_context_reset",
            "_ggml_compute_forward_add1",
            "__ZNK11llama_vocab10print_infoEv",
            "_ggml_compute_forward_arange",
            "_ggml_backend_buffer_get_size",
            "_llama_memory_seq_cp",
            "__ZNK11llama_vocab17get_ignore_mergesEv",
            "__ZN10LlamaModel9SaveCacheEv",
            "_ggml_compute_forward_elu",
            "_llama_model_meta_count",
            "_ggml_backend_alloc_ctx_tensors_from_buft",
            "_ggml_compute_forward_sgn",
            "_ggml_gated_linear_attn",
            "_llama_clear_adapter_lora",
            "__ZNK11llama_vocab13byte_to_tokenEh",
            "__ZN13llama_context13graph_reserveEjjjPK22llama_memory_context_i",
            "__ZNK11llama_vocab9token_padEv",
            "_quantize_row_q5_0_ref",
            "_ggml_opt_step_adamw",
            "__ZN19llama_memory_hybrid8seq_keepEi",
            "__ZNK13llama_context9n_seq_maxEv",
            "__ZN18llama_batch_allocr10ubatch_addERKNSt3__16vectorIiNS0_9allocatorIiEEEEjb",
            "__ZNK22llama_kv_cache_unified8get_sizeEv",
            "__ZN22llama_memory_recurrent5clearEb",
            "_llama_sampler_init_typical",
            "__ZN10LlamaModel12FormatPromptERKNSt3__112basic_stringIcNS0_11char_traitsIcEENS0_9allocatorIcEEEE",
            "_ggml_set_output",
            "_quantize_q5_0",
            "__Z19common_sampler_lastPK14common_sampler",
            "_ggml_reset",
            "_ggml_set_inplace",
            "__ZNK22llama_kv_cache_unified10total_sizeEv",
            "__ZNK10llama_file9write_rawEPKvm",
            "__ZN30llama_kv_cache_unified_contextD0Ev",
            "_ggml_graph_dup",
            "__Z17common_log_resumeP10common_log",
            "__ZNK22common_chat_msg_parser3strERK19common_string_range",
            "_ggml_gallocr_reserve",
            "_quantize_q2_K",
            "__ZNK18llama_batch_allocr11seq_pos_maxEi",
            "__ZNK30llama_memory_recurrent_context10get_ubatchEv",
            "_ggml_add1",
            "_ggml_set_2d_inplace",
            "__ZN14MtmdLlmContext9loadMediaERKNSt3__112basic_stringIcNS0_11char_traitsIcEENS0_9allocatorIcEEEE",
            "_ggml_backend_buffer_is_multi_buffer",
            "__ZN11llama_vocab4impl4loadER18llama_model_loaderRK6LLM_KV",
            "_llama_state_save_file",
            "__ZN20llama_grammar_parser8add_ruleEjRKNSt3__16vectorI21llama_grammar_elementNS0_9allocatorIS2_EEEE",
            "_ggml_opt_labels",
            "__ZNK17llm_graph_context16build_lora_mm_idEP11ggml_tensorS1_S1_",
            "_ggml_get_rows"
          ],
          "weak": [
            "__ZN18llama_model_loader7get_arrINSt3__16vectorINS1_12basic_stringIcNS1_11char_traitsIcEENS1_9allocatorIcEEEENS6_IS8_EEEEEEb6llm_kvRT_b",
            "__ZZN28qvac_lib_inference_addon_cpp5AddonI10LlamaModelED1EvENUlP11uv_handle_sE_8__invokeES4_",
            "__ZNSt3__116__variant_detail12__visitation6__base12__dispatcherIJLm1ELm1EEE10__dispatchB8ue170006IOZNS0_6__ctorINS0_8__traitsIJNS_9monostateENS_12basic_stringIcNS_11char_traitsIcEENS_9allocatorIcEEEENS_6vectorINS_4pairISE_NS_7variantIJdxEEEEENSC_ISJ_EEEEN28qvac_lib_inference_addon_cpp6OutputISE_E5ErrorENSO_6LogMsgEEEEE19__generic_constructB8ue170006INS0_18__move_constructorISR_LNS0_6_TraitE1EEEEEvRSS_OT_EUlRSY_OT0_E_JRNS0_6__baseILSV_1EJS8_SE_SL_SP_SQ_EEEOS16_EEEDcSY_DpT0_",
            "__ZNSt3__116__variant_detail12__visitation6__base12__dispatcherIJLm0ELm0EEE10__dispatchB8ue170006IOZNS0_6__ctorINS0_8__traitsIJNS_9monostateENS_12basic_stringIcNS_11char_traitsIcEENS_9allocatorIcEEEENS_6vectorINS_4pairISE_NS_7variantIJdxEEEEENSC_ISJ_EEEEN28qvac_lib_inference_addon_cpp6OutputISE_E5ErrorENSO_6LogMsgEEEEE19__generic_constructB8ue170006INS0_18__move_constructorISR_LNS0_6_TraitE1EEEEEvRSS_OT_EUlRSY_OT0_E_JRNS0_6__baseILSV_1EJS8_SE_SL_SP_SQ_EEEOS16_EEEDcSY_DpT0_",
            "__ZNSt3__116__variant_detail12__visitation6__base12__dispatcherIJLm1EEE10__dispatchB8ue170006IONS1_9__variant15__value_visitorIZN28qvac_lib_inference_addon_cpp5AddonI10LlamaModelE16jsOutputCallbackEP10uv_async_sEUlOT_E_EEJRNS0_6__baseILNS0_6_TraitE0EJdxEEEEEEDcSE_DpT0_",
            "__ZNSt3__116__variant_detail12__visitation6__base12__dispatcherIJLm4ELm4EEE10__dispatchB8ue170006IOZNS0_6__ctorINS0_8__traitsIJNS_9monostateENS_12basic_stringIcNS_11char_traitsIcEENS_9allocatorIcEEEENS_6vectorINS_4pairISE_NS_7variantIJdxEEEEENSC_ISJ_EEEEN28qvac_lib_inference_addon_cpp6OutputISE_E5ErrorENSO_6LogMsgEEEEE19__generic_constructB8ue170006INS0_18__move_constructorISR_LNS0_6_TraitE1EEEEEvRSS_OT_EUlRSY_OT0_E_JRNS0_6__baseILSV_1EJS8_SE_SL_SP_SQ_EEEOS16_EEEDcSY_DpT0_",
            "__ZNSt3__116__variant_detail12__visitation6__base12__dispatcherIJLm2ELm2EEE10__dispatchB8ue170006IOZNS0_6__ctorINS0_8__traitsIJNS_9monostateENS_12basic_stringIcNS_11char_traitsIcEENS_9allocatorIcEEEENS_6vectorINS_4pairISE_NS_7variantIJdxEEEEENSC_ISJ_EEEEN28qvac_lib_inference_addon_cpp6OutputISE_E5ErrorENSO_6LogMsgEEEEE19__generic_constructB8ue170006INS0_18__move_constructorISR_LNS0_6_TraitE1EEEEEvRSS_OT_EUlRSY_OT0_E_JRNS0_6__baseILSV_1EJS8_SE_SL_SP_SQ_EEEOS16_EEEDcSY_DpT0_",
            "__ZNSt3__116__variant_detail12__visitation6__base12__dispatcherIJLm0ELm0EEE10__dispatchB8ue170006IOZNS0_12__assignmentINS0_8__traitsIJNS_12basic_stringIcNS_11char_traitsIcEENS_9allocatorIcEEEENS_6vectorIhNSB_IhEEEEEEEE16__generic_assignB8ue170006INS0_17__move_assignmentISH_LNS0_6_TraitE1EEEEEvOT_EUlRSN_OT0_E_JRNS0_6__baseILSL_1EJSD_SG_EEEOSV_EEEDcSN_DpT0_",
            "__ZN18llama_model_loader7get_keyINSt3__112basic_stringIcNS1_11char_traitsIcEENS1_9allocatorIcEEEEEEb6llm_kvRT_b",
            "__ZN18llama_model_loader7get_keyIfEEb6llm_kvRT_b",
            "__Z7toloweri",
            "__ZN18llama_model_loader9get_arr_nIjEENSt3__19enable_ifIXsr3std11is_integralIT_EE5valueEbE4typeE6llm_kvRS3_b",
            "__Z7toupperi",
            "__ZZZN28qvac_lib_inference_addon_cpp5AddonI10LlamaModelE26initializeProcessingThreadEP8js_env_sP10js_value_sS6_S6_ENKUlvE1_clEvENUlP11uv_handle_sE_8__invokeES9_",
            "__ZNSt3__116__variant_detail12__visitation6__base12__dispatcherIJLm0EEE10__dispatchB8ue170006IONS1_9__variant15__value_visitorIZN28qvac_lib_inference_addon_cpp5AddonI10LlamaModelE16jsOutputCallbackEP10uv_async_sEUlOT_E_EEJRNS0_6__baseILNS0_6_TraitE0EJdxEEEEEEDcSE_DpT0_",
            "__ZNSt3__116__variant_detail12__visitation6__base12__dispatcherIJLm1ELm1EEE10__dispatchB8ue170006IOZNS0_12__assignmentINS0_8__traitsIJNS_12basic_stringIcNS_11char_traitsIcEENS_9allocatorIcEEEENS_6vectorIhNSB_IhEEEEEEEE16__generic_assignB8ue170006INS0_17__move_assignmentISH_LNS0_6_TraitE1EEEEEvOT_EUlRSN_OT0_E_JRNS0_6__baseILSL_1EJSD_SG_EEEOSV_EEEDcSN_DpT0_",
            "__ZN18llama_model_loader7get_keyIjEEb6llm_kvRT_b",
            "__ZN28qvac_lib_inference_addon_cpp5AddonI10LlamaModelE16jsOutputCallbackEP10uv_async_s",
            "__ZNSt3__116__variant_detail12__visitation6__base12__dispatcherIJLm1ELm1EEE10__dispatchB8ue170006IOZNS0_6__ctorINS0_8__traitsIJNS_12basic_stringIcNS_11char_traitsIcEENS_9allocatorIcEEEENS_6vectorIhNSB_IhEEEEEEEE19__generic_constructB8ue170006INS0_18__move_constructorISH_LNS0_6_TraitE1EEEEEvRSI_OT_EUlRSO_OT0_E_JRNS0_6__baseILSL_1EJSD_SG_EEEOSW_EEEDcSO_DpT0_",
            "__ZNSt3__116__variant_detail12__visitation6__base12__dispatcherIJLm0ELm0EEE10__dispatchB8ue170006IOZNS0_6__ctorINS0_8__traitsIJNS_12basic_stringIcNS_11char_traitsIcEENS_9allocatorIcEEEENS_6vectorIhNSB_IhEEEEEEEE19__generic_constructB8ue170006IRKNS0_18__copy_constructorISH_LNS0_6_TraitE1EEEEEvRSI_OT_EUlRSQ_OT0_E_JRNS0_6__baseILSL_1EJSD_SG_EEERKSY_EEEDcSQ_DpT0_",
            "__ZN18llama_model_loader7get_keyIbEEb6llm_kvRT_b",
            "__ZN18llama_model_loader14get_key_or_arrINSt3__15arrayIjLm512EEEEEb6llm_kvRT_jb",
            "__ZN18llama_model_loader14get_key_or_arrINSt3__15arrayIiLm4EEEEEb6llm_kvRT_jb",
            "__ZNSt3__116__variant_detail12__visitation6__base12__dispatcherIJLm1ELm1EEE10__dispatchB8ue170006IOZNS0_6__ctorINS0_8__traitsIJNS_12basic_stringIcNS_11char_traitsIcEENS_9allocatorIcEEEENS_6vectorIhNSB_IhEEEEEEEE19__generic_constructB8ue170006IRKNS0_18__copy_constructorISH_LNS0_6_TraitE1EEEEEvRSI_OT_EUlRSQ_OT0_E_JRNS0_6__baseILSL_1EJSD_SG_EEERKSY_EEEDcSQ_DpT0_",
            "__ZNSt3__116__variant_detail12__visitation6__base12__dispatcherIJLm0ELm0EEE10__dispatchB8ue170006IOZNS0_6__ctorINS0_8__traitsIJNS_12basic_stringIcNS_11char_traitsIcEENS_9allocatorIcEEEENS_6vectorIhNSB_IhEEEEEEEE19__generic_constructB8ue170006INS0_18__move_constructorISH_LNS0_6_TraitE1EEEEEvRSI_OT_EUlRSO_OT0_E_JRNS0_6__baseILSL_1EJSD_SG_EEEOSW_EEEDcSO_DpT0_",
            "__ZNSt3__116__variant_detail12__visitation6__base12__dispatcherIJLm3ELm3EEE10__dispatchB8ue170006IOZNS0_6__ctorINS0_8__traitsIJNS_9monostateENS_12basic_stringIcNS_11char_traitsIcEENS_9allocatorIcEEEENS_6vectorINS_4pairISE_NS_7variantIJdxEEEEENSC_ISJ_EEEEN28qvac_lib_inference_addon_cpp6OutputISE_E5ErrorENSO_6LogMsgEEEEE19__generic_constructB8ue170006INS0_18__move_constructorISR_LNS0_6_TraitE1EEEEEvRSS_OT_EUlRSY_OT0_E_JRNS0_6__baseILSV_1EJS8_SE_SL_SP_SQ_EEEOS16_EEEDcSY_DpT0_"
          ]
        }
      }
    ],
    "flags": [
      {
        "attributes": [
          "not_app_extension_safe"
        ]
      }
    ],
    "install_names": [
      {
        "name": "tetherto__llm-llamacpp@2.bare"
      }
    ],
    "target_info": [
      {
        "min_deployment": "12",
        "target": "arm64-macos"
      }
    ]
  },
  "tapi_tbd_version": 5
}
